(csage.matrix.matrix_gf2e_dense
unpickle_matrix_gf2e_dense_v0
p0
(csage.matrix.matrix_mod2_dense
unpickle_matrix_mod2_dense_v1
p1
(I91
I56
(lp2
I-119
aI80
aI78
aI71
aI13
aI10
aI26
aI10
aI0
aI0
aI0
aI13
aI73
aI72
aI68
aI82
aI0
aI0
aI0
aI56
aI0
aI0
aI0
aI91
aI1
aI3
aI0
aI0
aI0
aI28
aI40
aI-44
aI-87
aI0
aI0
aI0
aI6
aI80
aI76
aI84
aI69
aI0
aI0
aI0
aI-1
aI-1
aI-1
aI-91
aI-39
aI-97
aI-35
aI0
aI0
aI0
aI9
aI112
aI72
aI89
aI115
aI0
aI0
aI14
aI-60
aI0
aI0
aI14
aI-60
aI1
aI-107
aI43
aI14
aI27
aI0
aI0
aI0
aI40
aI73
aI68
aI65
aI84
aI40
aI-111
aI-19
aI-58
aI-79
aI1
aI0
aI0
aI8
aI-62
aI48
aI62
aI-25
aI116
aI68
aI-12
aI8
aI7
aI-69
aI-92
aI-96
aI18
aI-60
aI117
aI-58
aI102
aI-38
aI-98
aI-24
aI25
aI-59
aI85
aI-17
aI123
aI-47
aI2
aI-41
aI96
aI119
aI34
aI4
aI-101
aI77
aI-16
aI0
aI0
aI0
aI0
aI73
aI69
aI78
aI68
aI-82
aI66
aI96
aI-126
aI136
tp3
Rp4
csage.structure.factory
generic_factory_unpickle
p5
(csage.structure.factory
lookup_global
p6
(S'FiniteField'
p7
tp8
Rp9
(I7
I6
tp10
(csage.rings.integer
make_integer
p11
(S'20'
p12
tp13
Rp14
(S'y'
p15
tp16
csage.rings.polynomial.polynomial_gf2x
make_element
p17
(csage.rings.polynomial.polynomial_ring_constructor
PolynomialRing
p18
(g5
(g9
g10
(g11
(S'2'
p19
tp20
Rp21
(S'x'
p22
tp23
NS'modn'
p24
S'{}'
p25
g21
g11
(S'1'
p26
tp27
Rp28
I01
tp29
(dp30
tp31
Rp32
g22
NI00
tp33
Rp34
((lp35
csage.rings.finite_rings.integer_mod
Mod
p36
(g11
(g26
tp37
Rp38
g11
(g19
tp39
Rp40
g32
tp41
Rp42
ag42
ag36
(g11
(S'0'
p43
tp44
Rp45
g40
g32
tp46
Rp47
ag42
ag42
ag47
ag42
aI00
I00
tp48
tp49
Rp50
S'givaro'
p51
S'{}'
p52
g11
(g19
tp53
Rp54
I6
I01
tp55
(dp56
tp57
Rp58
I91
I7
tp59
Rp60
g0
(g1
(I91
I728
(lp61
I-119
aI80
aI78
aI71
aI13
aI10
aI26
aI10
aI0
aI0
aI0
aI13
aI73
aI72
aI68
aI82
aI0
aI0
aI2
aI-40
aI0
aI0
aI0
aI91
aI1
aI3
aI0
aI0
aI0
aI115
aI-90
aI96
aI25
aI0
aI0
aI0
aI6
aI80
aI76
aI84
aI69
aI0
aI0
aI0
aI-1
aI-1
aI-1
aI-91
aI-39
aI-97
aI-35
aI0
aI0
aI0
aI9
aI112
aI72
aI89
aI115
aI0
aI0
aI14
aI-60
aI0
aI0
aI14
aI-60
aI1
aI-107
aI43
aI14
aI27
aI0
aI0
aI2
aI28
aI73
aI68
aI65
aI84
aI104
aI-127
aI-75
aI-39
aI-117
aI-110
aI-125
aI32
aI12
aI5
aI80
aI-1
aI-4
aI126
aI58
aI29
aI-75
aI2
aI-127
aI27
aI30
aI73
aI112
aI102
aI43
aI-38
aI-11
aI-24
aI4
aI11
aI49
aI94
aI41
aI98
aI65
aI-11
aI-103
aI-9
aI-31
aI10
aI-76
aI101
aI-13
aI-128
aI-99
aI55
aI15
aI-39
aI-49
aI-98
aI115
aI-10
aI-67
aI-13
aI-100
aI-115
aI116
aI-48
aI-58
aI-59
aI118
aI123
aI-50
aI-128
aI-9
aI-17
aI94
aI93
aI60
aI86
aI110
aI-5
aI31
aI-109
aI48
aI92
aI-38
aI111
aI95
aI70
aI-31
aI-115
aI-3
aI-10
aI101
aI16
aI-98
aI-19
aI103
aI-11
aI-35
aI39
aI49
aI-72
aI-76
aI-13
aI-3
aI29
aI-126
aI55
aI118
aI-66
aI-65
aI35
aI-16
aI-38
aI22
aI-29
aI73
aI0
aI-34
aI-40
aI-43
aI-17
aI-46
aI-113
aI75
aI91
aI-116
aI39
aI110
aI28
aI85
aI3
aI73
aI-114
aI39
aI94
aI92
aI-38
aI-51
aI56
aI-24
aI-60
aI27
aI-69
aI25
aI7
aI125
aI56
aI68
aI-93
aI-101
aI27
aI92
aI120
aI99
aI119
aI-29
aI-73
aI7
aI-105
aI54
aI-103
aI119
aI28
aI56
aI68
aI-101
aI-51
aI-105
aI118
aI-68
aI-79
aI-39
aI-100
aI102
aI-58
aI-91
aI-51
aI-25
aI98
aI43
aI46
aI-113
aI83
aI114
aI8
aI43
aI-2
aI29
aI11
aI53
aI38
aI62
aI60
aI-37
aI106
aI126
aI98
aI-57
aI-117
aI-83
aI-26
aI39
aI102
aI28
aI-33
aI-63
aI-125
aI-100
aI-51
aI-118
aI23
aI123
aI-112
aI87
aI25
aI-15
aI108
aI15
aI-13
aI65
aI27
aI-114
aI111
aI53
aI-50
aI99
aI77
aI120
aI-79
aI-57
aI-71
aI-90
aI5
aI-49
aI-10
aI44
aI71
aI54
aI-32
aI-7
aI-112
aI105
aI110
aI111
aI-64
aI-45
aI-9
aI-69
aI-100
aI-26
aI-10
aI38
aI28
aI11
aI-15
aI-74
aI-30
aI88
aI-119
aI-73
aI17
aI127
aI14
aI89
aI122
aI-106
aI50
aI-32
aI107
aI-15
aI94
aI-61
aI81
aI62
aI-111
aI118
aI-82
aI123
aI1
aI111
aI-20
aI-76
aI126
aI-35
aI115
aI-68
aI-73
aI-45
aI82
aI95
aI-82
aI-32
aI-52
aI94
aI127
aI-66
aI28
aI-29
aI-44
aI94
aI127
aI46
aI30
aI-30
aI-112
aI-1
aI-126
aI-99
aI120
aI-49
aI-16
aI-34
aI78
aI-21
aI-15
aI-98
aI-32
aI-52
aI-34
aI123
aI-98
aI-41
aI113
aI106
aI-17
aI-43
aI33
aI84
aI28
aI-35
aI-41
aI-40
aI-117
aI-55
aI0
aI103
aI-10
aI118
aI-115
aI67
aI-63
aI-87
aI-67
aI93
aI-101
aI-31
aI120
aI111
aI-33
aI-53
aI118
aI109
aI-122
aI-30
aI-44
aI54
aI-44
aI-108
aI24
aI-50
aI108
aI83
aI77
aI-119
aI-32
aI-112
aI77
aI-40
aI-30
aI-51
aI-15
aI-34
aI78
aI-90
aI-104
aI48
aI-100
aI-39
aI-42
aI58
aI91
aI-117
aI83
aI-37
aI90
aI31
aI-124
aI-70
aI-119
aI-68
aI50
aI-41
aI30
aI-95
aI109
aI101
aI-37
aI81
aI123
aI-124
aI-78
aI81
aI108
aI71
aI-51
aI20
aI-68
aI93
aI53
aI29
aI53
aI83
aI14
aI-106
aI-90
aI-85
aI-42
aI11
aI-46
aI-78
aI-52
aI-59
aI99
aI28
aI-35
aI126
aI56
aI-81
aI-69
aI-104
aI-52
aI118
aI-41
aI-88
aI49
aI-80
aI-35
aI-75
aI117
aI40
aI-10
aI-67
aI-72
aI107
aI-21
aI80
aI-19
aI-128
aI119
aI2
aI80
aI-20
aI-112
aI119
aI2
aI-48
aI70
aI-35
aI-120
aI-9
aI13
aI-32
aI118
aI-52
aI123
aI18
aI48
aI59
aI-22
aI61
aI73
aI-43
aI-93
aI-43
aI105
aI-126
aI108
aI-39
aI-93
aI-120
aI-75
aI-37
aI30
aI69
aI-92
aI-35
aI-11
aI104
aI88
aI-68
aI31
aI12
aI-51
aI118
aI-96
aI93
aI-126
aI-2
aI63
aI73
aI-88
aI93
aI5
aI29
aI-31
aI118
aI29
aI-12
aI-48
aI120
aI-65
aI34
aI74
aI51
aI-38
aI-50
aI-109
aI78
aI10
aI-113
aI-55
aI-117
aI-29
aI93
aI29
aI-80
aI-65
aI-72
aI28
aI-120
aI-55
aI-61
aI70
aI-114
aI85
aI29
aI-114
aI99
aI-41
aI-3
aI-24
aI-8
aI1
aI46
aI-123
aI118
aI-7
aI-106
aI-65
aI-16
aI-116
aI0
aI0
aI0
aI0
aI73
aI69
aI78
aI68
aI-82
aI66
aI96
aI-126
aI636
tp62
Rp63
g58
I91
I91
tp64
Rp65
g0
(g1
(I91
I728
(lp66
I-119
aI80
aI78
aI71
aI13
aI10
aI26
aI10
aI0
aI0
aI0
aI13
aI73
aI72
aI68
aI82
aI0
aI0
aI2
aI-40
aI0
aI0
aI0
aI91
aI1
aI3
aI0
aI0
aI0
aI115
aI-90
aI96
aI25
aI0
aI0
aI0
aI6
aI80
aI76
aI84
aI69
aI0
aI0
aI0
aI-1
aI-1
aI-1
aI-91
aI-39
aI-97
aI-35
aI0
aI0
aI0
aI9
aI112
aI72
aI89
aI115
aI0
aI0
aI14
aI-60
aI0
aI0
aI14
aI-60
aI1
aI-107
aI43
aI14
aI27
aI0
aI0
aI1
aI-55
aI73
aI68
aI65
aI84
aI104
aI-127
aI-75
aI-40
aI-31
aI-114
aI-124
aI32
aI12
aI4
aI-32
aI121
aI115
aI31
aI-67
aI119
aI50
aI-20
aI121
aI-85
aI5
aI-95
aI-99
aI-110
aI-20
aI-97
aI-115
aI124
aI33
aI-91
aI66
aI43
aI-114
aI-33
aI97
aI102
aI-25
aI79
aI61
aI112
aI-46
aI69
aI120
aI-77
aI-117
aI112
aI92
aI33
aI-111
aI-29
aI56
aI67
aI-46
aI85
aI53
aI-34
aI-20
aI-113
aI42
aI-58
aI105
aI-41
aI-32
aI104
aI91
aI-7
aI103
aI74
aI113
aI-38
aI-105
aI-87
aI-60
aI-63
aI52
aI-71
aI72
aI33
aI-114
aI51
aI77
aI-66
aI60
aI29
aI-34
aI-20
aI111
aI79
aI-122
aI-45
aI-82
aI-63
aI-47
aI-46
aI-5
aI-90
aI-119
aI112
aI-38
aI119
aI77
aI-125
aI-125
aI-81
aI-50
aI29
aI-109
aI-32
aI104
aI-14
aI-109
aI82
aI-32
aI-76
aI29
aI74
aI-128
aI55
aI-5
aI25
aI19
aI9
aI126
aI-38
aI110
aI80
aI4
aI56
aI-20
aI-16
aI101
aI1
aI-34
aI-20
aI-111
aI-110
aI-60
aI105
aI-41
aI-32
aI-80
aI-61
aI-33
aI74
aI1
aI78
aI123
aI108
aI100
aI112
aI-40
aI-9
aI-59
aI-93
aI-60
aI97
aI-113
aI3
aI92
aI-122
aI-45
aI-98
aI2
aI97
aI28
aI-26
aI29
aI-78
aI26
aI28
aI60
aI6
aI-25
aI-45
aI-125
aI56
aI108
aI-14
aI98
aI38
aI113
aI-38
aI-81
aI-109
aI67
aI56
aI108
aI-2
aI-14
aI100
aI112
aI-40
aI107
aI18
aI-122
aI113
aI-40
aI82
aI-64
aI67
aI56
aI-106
aI-36
aI24
aI-114
aI-123
aI-115
aI-116
aI-30
aI-104
aI-100
aI-80
aI89
aI28
aI91
aI93
aI-38
aI30
aI78
aI-69
aI6
aI-57
aI74
aI114
aI7
aI113
aI76
aI111
aI-122
aI28
aI-114
aI-1
aI-19
aI-114
aI24
aI-57
aI126
aI87
aI-68
aI-4
aI108
aI-81
aI-39
aI-74
aI-58
aI-22
aI-29
aI-67
aI102
aI43
aI-63
aI105
aI-41
aI-32
aI-67
aI30
aI-36
aI-93
aI23
aI113
aI-38
aI-5
aI-25
aI-48
aI-54
aI-124
aI102
aI7
aI22
aI-66
aI-126
aI99
aI-23
aI98
aI-120
aI-31
aI120
aI-85
aI78
aI18
aI56
aI-98
aI-19
aI-91
aI12
aI-89
aI93
aI-125
aI-29
aI-75
aI-86
aI-118
aI-29
aI-16
aI90
aI87
aI17
aI78
aI-69
aI6
aI-121
aI-37
aI22
aI107
aI112
aI-38
aI-103
aI10
aI126
aI60
aI21
aI60
aI-66
aI19
aI-10
aI24
aI-57
aI123
aI-123
aI28
aI-58
aI49
aI104
aI-25
aI21
aI56
aI-19
aI26
aI28
aI-93
aI79
aI5
aI2
aI-100
aI118
aI118
aI-35
aI62
aI14
aI-53
aI38
aI-8
aI24
aI-17
aI-11
aI119
aI-102
aI-10
aI112
aI-38
aI-7
aI-104
aI120
aI120
aI-77
aI21
aI49
aI113
aI112
aI-76
aI63
aI53
aI-10
aI125
aI64
aI-55
aI-34
aI40
aI104
aI98
aI-19
aI-30
aI-67
aI-82
aI42
aI-63
aI123
aI-19
aI83
aI-126
aI-9
aI-38
aI-89
aI4
aI-89
aI-83
aI-60
aI-1
aI-39
aI-94
aI-36
aI-66
aI-58
aI-59
aI65
aI113
aI80
aI13
aI112
aI-92
aI110
aI-7
aI57
aI-114
aI-19
aI118
aI103
aI29
aI-89
aI93
aI-75
aI-105
aI-14
aI-51
aI-76
aI-49
aI82
aI-111
aI-84
aI78
aI102
aI56
aI34
aI-83
aI-44
aI34
aI78
aI-69
aI44
aI-34
aI21
aI1
aI111
aI-85
aI-19
aI-9
aI78
aI9
aI78
aI-69
aI46
aI38
aI53
aI65
aI-79
aI-125
aI118
aI-31
aI-70
aI-117
aI22
aI-2
aI3
aI-79
aI81
aI-128
aI-7
aI-60
aI-1
aI113
aI-16
aI0
aI0
aI0
aI0
aI73
aI69
aI78
aI68
aI-82
aI66
aI96
aI-126
aI553
tp67
Rp68
g58
I91
I91
tp69
Rp70
tp71
.