csage.matrix.matrix_gf2e_dense
unpickle_matrix_gf2e_dense_v0
p0
(csage.matrix.matrix_mod2_dense
unpickle_matrix_mod2_dense_v1
p1
(I91
I56
(lp2
I-119
aI80
aI78
aI71
aI13
aI10
aI26
aI10
aI0
aI0
aI0
aI13
aI73
aI72
aI68
aI82
aI0
aI0
aI0
aI56
aI0
aI0
aI0
aI91
aI1
aI3
aI0
aI0
aI0
aI28
aI40
aI-44
aI-87
aI0
aI0
aI0
aI6
aI80
aI76
aI84
aI69
aI0
aI0
aI0
aI-1
aI-1
aI-1
aI-91
aI-39
aI-97
aI-35
aI0
aI0
aI0
aI9
aI112
aI72
aI89
aI115
aI0
aI0
aI14
aI-60
aI0
aI0
aI14
aI-60
aI1
aI-107
aI43
aI14
aI27
aI0
aI0
aI0
aI-65
aI73
aI68
aI65
aI84
aI40
aI-111
aI53
aI-111
aI65
aI2
aI-64
aI32
aI8
aI-61
aI-4
aI-71
aI79
aI-49
aI38
aI9
aI-69
aI116
aI84
aI68
aI-38
aI-98
aI-5
aI127
aI-64
aI121
aI112
aI-61
aI-1
aI71
aI-28
aI-98
aI71
aI-53
aI115
aI-27
aI95
aI-37
aI-16
aI-17
aI64
aI-84
aI-2
aI-119
aI-13
aI-38
aI-89
aI-97
aI107
aI-1
aI92
aI31
aI-34
aI-2
aI25
aI99
aI109
aI-1
aI92
aI16
aI-79
aI-114
aI127
aI7
aI7
aI23
aI28
aI124
aI-13
aI28
aI63
aI-4
aI-52
aI-13
aI25
aI107
aI-90
aI-33
aI121
aI62
aI103
aI29
aI-17
aI60
aI7
aI-118
aI88
aI35
aI-33
aI-7
aI52
aI-92
aI127
aI-11
aI-82
aI78
aI-46
aI25
aI-86
aI-61
aI115
aI-14
aI-113
aI-4
aI35
aI-1
aI-56
aI63
aI-14
aI-113
aI-4
aI35
aI-1
aI-56
aI63
aI104
aI127
aI-25
aI81
aI30
aI-108
aI7
aI-27
aI65
aI121
aI80
aI30
aI-108
aI7
aI-27
aI65
aI121
aI80
aI30
aI-108
aI7
aI-27
aI65
aI121
aI80
aI30
aI-108
aI7
aI-27
aI65
aI121
aI80
aI30
aI-108
aI7
aI-27
aI-95
aI-18
aI-43
aI-73
aI122
aI86
aI7
aI-23
aI8
aI55
aI-105
aI-35
aI-105
aI-35
aI-113
aI-10
aI11
aI55
aI7
aI118
aI31
aI-38
aI39
aI108
aI15
aI-7
aI116
aI-25
aI35
aI-7
aI72
aI62
aI-6
aI-20
aI-3
aI0
aI-122
aI109
aI-21
aI19
aI28
aI119
aI71
aI35
aI0
aI0
aI0
aI0
aI73
aI69
aI78
aI68
aI-82
aI66
aI96
aI-126
aI287
tp3
Rp4
csage.structure.factory
generic_factory_unpickle
p5
(csage.structure.factory
lookup_global
p6
(S'FiniteField'
p7
tp8
Rp9
(I7
I6
tp10
(csage.rings.integer
make_integer
p11
(S'20'
p12
tp13
Rp14
(S'y'
p15
tp16
csage.rings.polynomial.polynomial_gf2x
make_element
p17
(csage.rings.polynomial.polynomial_ring_constructor
PolynomialRing
p18
(g5
(g9
g10
(g11
(S'2'
p19
tp20
Rp21
(S'x'
p22
tp23
NS'modn'
p24
S'{}'
p25
g21
g11
(S'1'
p26
tp27
Rp28
I01
tp29
(dp30
tp31
Rp32
g22
NI00
tp33
Rp34
((lp35
csage.rings.finite_rings.integer_mod
Mod
p36
(g11
(g26
tp37
Rp38
g11
(g19
tp39
Rp40
g32
tp41
Rp42
ag42
ag36
(g11
(S'0'
p43
tp44
Rp45
g40
g32
tp46
Rp47
ag42
ag42
ag47
ag42
aI00
I00
tp48
tp49
Rp50
S'givaro'
p51
S'{}'
p52
g11
(g19
tp53
Rp54
I6
I01
tp55
(dp56
tp57
Rp58
I91
I7
tp59
Rp60
.