csage.matrix.matrix_gf2e_dense
unpickle_matrix_gf2e_dense_v0
p0
(csage.matrix.matrix_mod2_dense
unpickle_matrix_mod2_dense_v1
p1
(I1925
I120
(lp2
I-119
aI80
aI78
aI71
aI13
aI10
aI26
aI10
aI0
aI0
aI0
aI13
aI73
aI72
aI68
aI82
aI0
aI0
aI0
aI120
aI0
aI0
aI7
aI-123
aI1
aI3
aI0
aI0
aI0
aI111
aI1
aI-112
aI-40
aI0
aI0
aI0
aI6
aI80
aI76
aI84
aI69
aI0
aI0
aI0
aI-1
aI-1
aI-1
aI-91
aI-39
aI-97
aI-35
aI0
aI0
aI0
aI9
aI112
aI72
aI89
aI115
aI0
aI0
aI14
aI-60
aI0
aI0
aI14
aI-60
aI1
aI-107
aI43
aI14
aI27
aI0
aI0
aI17
aI84
aI73
aI68
aI65
aI84
aI120
aI-100
aI93
aI-100
aI1
aI-110
aI-36
aI56
aI14
aI4
aI-5
aI-25
aI124
aI58
aI-19
aI17
aI1
aI84
aI38
aI-18
aI-62
aI-69
aI-101
aI18
aI9
aI20
aI-127
aI34
aI-43
aI-18
aI-119
aI-47
aI-17
aI-4
aI-1
aI-33
aI-51
aI-1
aI126
aI127
aI120
aI22
aI-29
aI-62
aI-29
aI92
aI40
aI-98
aI11
aI-51
aI125
aI97
aI-72
aI46
aI-124
aI-33
aI5
aI-16
aI119
aI-127
aI-4
aI119
aI65
aI-4
aI-1
aI-126
aI-7
aI-98
aI-33
aI-97
aI92
aI-21
aI-67
aI-57
aI122
aI-17
aI-79
aI-34
aI-53
aI5
aI52
aI67
aI-17
aI-27
aI2
aI-62
aI-93
aI119
aI-26
aI-98
aI-59
aI-91
aI23
aI-39
aI-49
aI-30
aI-89
aI-105
aI-126
aI31
aI91
aI31
aI5
aI55
aI83
aI31
aI5
aI-121
aI-93
aI-113
aI-126
aI-55
aI-83
aI-113
aI-126
aI-51
aI-91
aI15
aI2
aI-117
aI-83
aI7
aI2
aI-121
aI-87
aI7
aI2
aI-63
aI-47
aI3
aI-127
aI-30
aI-42
aI3
aI-127
aI-65
aI-78
aI-105
aI-13
aI71
aI-48
aI-80
aI-14
aI71
aI16
aI24
aI-7
aI35
aI72
aI60
aI-7
aI35
aI-24
aI-41
aI118
aI118
aI-66
aI17
aI16
aI86
aI-66
aI17
aI64
aI70
aI-66
aI17
aI96
aI78
aI-66
aI78
aI24
aI118
aI-4
aI78
aI72
aI102
aI-4
aI78
aI104
aI70
aI-4
aI74
aI0
aI118
aI-68
aI74
aI32
aI102
aI-68
aI74
aI16
aI126
aI1
aI-55
aI-98
aI-1
aI2
aI-102
aI53
aI-1
aI11
aI32
aI-10
aI-8
aI47
aI0
aI-7
aI111
aI-126
aI121
aI-35
aI-1
aI63
aI-32
aI-9
aI119
aI60
aI-32
aI-46
aI-57
aI48
aI-4
aI-29
aI92
aI40
aI-122
aI-33
aI-81
aI28
aI49
aI60
aI-3
aI31
aI107
aI-100
aI-59
aI85
aI-49
aI-85
aI21
aI-117
aI-65
aI-11
aI-23
aI-8
aI-6
aI-12
aI-6
aI124
aI-72
aI-25
aI30
aI-21
aI-117
aI-37
aI-61
aI-44
aI23
aI-73
aI-109
aI-93
aI47
aI110
aI55
aI-73
aI-66
aI100
aI59
aI-117
aI75
aI-97
aI-50
aI-121
aI-89
aI-26
aI44
aI-106
aI30
aI8
aI12
aI67
aI15
aI4
aI-110
aI71
aI15
aI4
aI-102
aI91
aI15
aI-49
aI-121
aI74
aI118
aI22
aI43
aI127
aI4
aI-127
aI-111
aI63
aI-126
aI-60
aI-109
aI63
aI-126
aI126
aI93
aI109
aI-25
aI27
aI1
aI97
aI-27
aI-101
aI32
aI100
aI-28
aI27
aI1
aI-26
aI-28
aI-53
aI-7
aI48
aI67
aI-49
aI98
aI-59
aI-17
aI-124
aI98
aI-60
aI-17
aI127
aI14
aI-49
aI-7
aI-112
aI-75
aI-97
aI-59
aI-118
aI87
aI9
aI-52
aI-116
aI-41
aI-25
aI3
aI-102
aI121
aI22
aI107
aI-2
aI11
aI8
aI-82
aI-13
aI-127
aI-18
aI60
aI-117
aI61
aI-2
aI-99
aI15
aI-28
aI117
aI-1
aI-99
aI15
aI58
aI32
aI30
aI103
aI76
aI49
aI-3
aI-83
aI3
aI98
aI56
aI-3
aI-42
aI1
aI1
aI-18
aI-6
aI-23
aI-128
aI16
aI-65
aI-11
aI-24
aI-128
aI-8
aI-40
aI-5
aI-19
aI91
aI-9
aI89
aI44
aI61
aI-80
aI104
aI24
aI122
aI-48
aI114
aI-14
aI-24
aI65
aI11
aI-52
aI-83
aI71
aI-5
aI-19
aI114
aI-56
aI-80
aI-14
aI71
aI16
aI24
aI-7
aI35
aI72
aI60
aI-7
aI35
aI-24
aI-41
aI-63
aI-100
aI111
aI4
aI-124
aI-107
aI111
aI-2
aI-112
aI-111
aI111
aI4
aI-104
aI-109
aI15
aI-5
aI-83
aI-25
aI-98
aI-59
aI-118
aI-33
aI65
aI-60
aI-120
aI-33
aI9
aI-121
aI-77
aI-33
aI70
aI-53
aI89
aI-84
aI120
aI-107
aI-64
aI-52
aI120
aI-77
aI-33
aI82
aI-52
aI-77
aI88
aI-13
aI95
aI64
aI112
aI-17
aI55
aI-72
aI-31
aI44
aI-10
aI-8
aI-38
aI111
aI-32
aI117
aI-65
aI-10
aI27
aI55
aI92
aI-79
aI-4
aI-52
aI13
aI55
aI-116
aI-2
aI114
aI-61
aI-127
aI-89
aI94
aI-36
aI112
aI-30
aI-46
aI-49
aI13
aI-9
aI-40
aI126
aI-2
aI22
aI122
aI22
aI43
aI-65
aI-3
aI-36
aI-93
aI-49
aI-30
aI-28
aI-73
aI-97
aI-61
aI-109
aI95
aI126
aI126
aI-39
aI-50
aI98
aI-27
aI-109
aI-97
aI-25
aI-26
aI89
aI-100
aI124
aI-14
aI51
aI55
aI80
aI-40
aI-15
aI-23
aI103
aI110
aI32
aI49
aI-30
aI-45
aI-49
aI-36
aI48
aI96
aI-57
aI-125
aI-97
aI-71
aI97
aI-52
aI-116
aI23
aI63
aI115
aI-125
aI-120
aI53
aI63
aI126
aI-26
aI-122
aI16
aI123
aI-4
aI-8
aI-103
aI27
aI-64
aI-68
aI-18
aI-73
aI-97
aI97
aI-24
aI102
aI-7
aI7
aI-122
aI14
aI-93
aI-34
aI48
aI52
aI121
aI-42
aI7
aI67
aI-101
aI111
aI-25
aI-73
aI127
aI96
aI-32
aI-80
aI-14
aI-39
aI63
aI48
aI-80
aI56
aI-7
aI-20
aI31
aI24
aI54
aI-20
aI-8
aI-14
aI15
aI12
aI43
aI70
aI124
aI-7
aI7
aI6
aI5
aI59
aI30
aI-3
aI3
aI-125
aI-102
aI25
aI15
aI-2
aI-127
aI33
aI-59
aI-102
aI15
aI-1
aI-64
aI-128
aI98
aI-113
aI-113
aI127
aI96
aI56
aI-13
aI-70
aI63
aI-2
aI-119
aI-127
aI-122
aI-43
aI-65
aI24
aI8
aI-116
aI122
aI-60
aI64
aI-30
aI-47
aI23
aI3
aI53
aI-69
aI127
aI49
aI12
aI88
aI-15
aI-35
aI-65
aI24
aI-58
aI-116
aI-8
aI-22
aI95
aI12
aI66
aI86
aI60
aI-11
aI47
aI6
aI9
aI-77
aI127
aI49
aI-124
aI88
aI-13
aI-39
aI-65
aI24
aI64
aI-20
aI-15
aI-24
aI95
aI26
aI110
aI94
aI-9
aI-45
aI-65
aI105
aI96
aI88
aI-11
aI-100
aI6
aI-110
aI-95
aI127
aI26
aI104
aI-66
aI-119
aI-17
aI122
aI78
aI-61
aI-56
aI-118
aI-25
aI122
aI78
aI-61
aI-62
aI-86
aI-25
aI52
aI72
aI-84
aI-7
aI-86
aI-25
aI52
aI68
aI-20
aI-15
aI-84
aI-25
aI52
aI-64
aI-68
aI-18
aI-93
aI-98
aI93
aI80
aI-80
aI-42
aI-37
aI5
aI21
aI35
aI127
aI23
aI52
aI-20
aI-11
aI118
aI1
aI-59
aI-102
aI-17
aI-11
aI118
aI-63
aI-60
aI30
aI-81
aI-11
aI118
aI-127
aI-52
aI-21
aI62
aI-41
aI91
aI11
aI38
aI75
aI95
aI45
aI-40
aI124
aI57
aI-33
aI-6
aI106
aI-127
aI102
aI-113
aI-105
aI-66
aI90
aI-112
aI88
aI-6
aI-98
aI64
aI-79
aI-30
aI63
aI-127
aI100
aI-57
aI127
aI-126
aI-60
aI-114
aI-1
aI37
aI48
aI95
aI-33
aI95
aI-29
aI-1
aI38
aI-4
aI-2
aI-2
aI-127
aI107
aI31
aI-33
aI-77
aI56
aI23
aI-118
aI-25
aI66
aI115
aI95
aI24
aI-82
aI11
aI-31
aI-38
aI-49
aI120
aI-42
aI-97
aI-59
aI95
aI-65
aI-56
aI127
aI-11
aI17
aI-33
aI79
aI47
aI-1
aI-126
aI-9
aI-40
aI-6
aI122
aI-77
aI-111
aI-87
aI-81
aI55
aI-113
aI57
aI-6
aI122
aI-20
aI89
aI-36
aI-6
aI-110
aI-19
aI44
aI46
aI125
aI16
aI88
aI108
aI61
aI16
aI56
aI76
aI61
aI16
aI8
aI-114
aI30
aI8
aI20
aI-73
aI30
aI8
aI-4
aI-107
aI-49
aI-99
aI63
aI-126
aI-122
aI-107
aI63
aI-126
aI-64
aI-56
aI31
aI65
aI-30
aI-55
aI31
aI65
aI-65
aI62
aI72
aI-100
aI111
aI4
aI-124
aI-107
aI111
aI4
aI-112
aI-111
aI111
aI4
aI-104
aI-109
aI111
aI-98
aI-49
aI121
aI-108
aI-97
aI-59
aI-118
aI-33
aI9
aI-59
aI-120
aI-33
aI9
aI-121
aI-5
aI121
aI18
aI118
aI-68
aI74
aI32
aI102
aI-68
aI74
aI16
aI-82
aI-13
aI21
aI-20
aI-7
aI47
aI-96
aI89
aI-13
aI-33
aI-7
aI69
aI-10
aI-8
aI47
aI0
aI-7
aI59
aI95
aI-60
aI-21
aI-2
aI-3
aI-50
aI7
aI-19
aI-64
aI-57
aI49
aI88
aI49
aI-3
aI45
aI7
aI12
aI-89
aI-33
aI-86
aI40
aI-72
aI-21
aI-89
aI21
aI-118
aI-33
aI122
aI-92
aI-8
aI99
aI-17
aI-73
aI-53
aI3
aI-95
aI89
aI122
aI98
aI111
aI48
aI-12
aI-60
aI-34
aI-30
aI-47
aI19
aI123
aI47
aI110
aI61
aI-38
aI111
aI47
aI-5
aI89
aI-84
aI-4
aI17
aI4
aI70
aI-2
aI8
aI18
aI79
aI-2
aI8
aI-6
aI-11
aI-22
aI-100
aI111
aI4
aI-124
aI-107
aI111
aI-2
aI-112
aI-111
aI111
aI4
aI-104
aI-109
aI15
aI-5
aI-83
aI-25
aI-98
aI-59
aI-118
aI-33
aI65
aI-60
aI-120
aI-33
aI9
aI-121
aI-77
aI-33
aI70
aI-53
aI89
aI-84
aI120
aI-107
aI-64
aI-52
aI120
aI-77
aI-33
aI82
aI-52
aI-77
aI88
aI-13
aI95
aI64
aI112
aI-17
aI55
aI-72
aI-31
aI44
aI-10
aI-8
aI-38
aI111
aI-32
aI117
aI-65
aI-10
aI27
aI55
aI92
aI-15
aI-116
aI105
aI-18
aI11
aI-61
aI-24
aI47
aI55
aI28
aI120
aI-22
aI-59
aI13
aI39
aI46
aI-3
aI-36
aI112
aI-113
aI-19
aI-25
aI11
aI-53
aI15
aI43
aI127
aI44
aI2
aI70
aI-2
aI-76
aI68
aI60
aI-7
aI83
aI-62
aI98
aI-7
aI-103
aI67
aI-62
aI-54
aI55
aI2
aI-56
aI-56
aI55
aI2
aI-52
aI-55
aI71
aI63
aI87
aI-80
aI-77
aI88
aI-15
aI-5
aI-113
aI24
aI-15
aI59
aI-31
aI47
aI98
aI28
aI-17
aI30
aI-57
aI-85
aI127
aI-117
aI25
aI-81
aI-2
aI17
aI-114
aI-97
aI103
aI113
aI103
aI-79
aI-26
aI-65
aI-128
aI-32
aI-15
aI115
aI-70
aI113
aI22
aI123
aI124
aI-5
aI57
aI-68
aI-18
aI-73
aI-97
aI97
aI-24
aI102
aI-7
aI7
aI-122
aI14
aI-93
aI-34
aI48
aI52
aI121
aI-42
aI7
aI67
aI-101
aI111
aI-25
aI-73
aI127
aI110
aI12
aI28
aI86
aI62
aI-5
aI-89
aI71
aI-97
aI-59
aI-55
aI103
aI-1
aI124
aI-47
aI28
aI95
aI-2
aI-87
aI108
aI103
aI49
aI-29
aI-53
aI63
aI-24
aI-39
aI48
aI-3
aI3
aI13
aI100
aI-59
aI-93
aI127
aI-26
aI15
aI-29
aI-63
aI63
aI-99
aI-4
aI44
aI-42
aI124
aI-8
aI-89
aI-59
aI121
aI124
aI-4
aI51
aI-20
aI-15
aI-29
aI-97
aI24
aI-52
aI-9
aI-57
aI63
aI49
aI-48
aI-80
aI-6
aI23
aI3
aI-127
aI81
aI-113
aI24
aI72
aI60
aI-6
aI98
aI-96
aI102
aI-9
aI47
aI-122
aI1
aI43
aI-66
aI-5
aI23
aI-61
aI-104
aI17
aI95
aI-3
aI-117
aI65
aI-56
aI-118
aI-89
aI-2
aI-59
aI32
aI97
aI-10
aI47
aI-122
aI16
aI107
aI62
aI-5
aI-105
aI34
aI-120
aI61
aI30
aI-3
aI75
aI-61
aI-51
aI-21
aI126
aI-6
aI55
aI13
aI12
aI-85
aI-98
aI-45
aI64
aI50
aI-12
aI79
aI3
aI-51
aI55
aI-15
aI93
aI-49
aI105
aI24
aI89
aI-15
aI92
aI-49
aI105
aI88
aI88
aI-11
aI-100
aI6
aI-119
aI53
aI95
aI-11
aI-100
aI-122
aI-120
aI61
aI-98
aI-11
aI-100
aI6
aI-104
aI-41
aI125
aI-44
aI-77
aI11
aI10
aI-42
aI122
aI-69
aI-96
aI98
aI-28
aI-17
aI-126
aI-122
aI-67
aI-34
aI46
aI-96
aI88
aI-13
aI-67
aI-34
aI46
aI-104
aI-40
aI-29
aI-75
aI-34
aI46
aI-112
aI121
aI-35
aI-25
aI122
aI107
aI-63
aI100
aI-23
aI-85
aI5
aI-101
aI47
aI-25
aI91
aI95
aI45
aI-48
aI-20
aI-15
aI-46
aI87
aI11
aI18
aI75
aI-33
aI19
aI40
aI86
aI-4
aI39
aI-112
aI-20
aI-8
aI79
aI-112
aI-40
aI-15
aI-65
aI4
aI-26
aI-21
aI-5
aI107
aI-4
aI-33
aI-124
aI-33
aI-9
aI-49
aI92
aI123
aI-100
aI65
aI-59
aI115
aI-95
aI-71
aI47
aI12
aI-41
aI-123
aI-16
aI-69
aI0
aI46
aI-1
aI-31
aI97
aI127
aI22
aI127
aI-11
aI32
aI-33
aI-89
aI79
aI127
aI127
aI123
aI117
aI59
aI-117
aI-91
aI-25
aI70
aI96
aI24
aI122
aI110
aI4
aI-110
aI71
aI15
aI122
aI104
aI110
aI61
aI-4
aI-68
aI91
aI-58
aI58
aI-117
aI-107
aI63
aI-126
aI-64
aI-56
aI31
aI65
aI-30
aI-55
aI31
aI65
aI-65
aI54
aI-82
aI-13
aI-115
aI-128
aI-80
aI-14
aI-115
aI0
aI50
aI-14
aI-115
aI0
aI115
aI-14
aI-27
aI121
aI55
aI71
aI-19
aI89
aI-84
aI-8
aI-99
aI80
aI-116
aI-8
aI-99
aI112
aI120
aI-50
aI-25
aI60
aI123
aI-49
aI98
aI-59
aI-85
aI4
aI102
aI-58
aI-21
aI-13
aI10
aI31
aI-2
aI-50
aI98
aI-51
aI127
aI1
aI-63
aI117
aI30
aI-128
aI61
aI-2
aI11
aI64
aI126
aI-5
aI-107
aI-68
aI-18
aI-33
aI-73
aI-33
aI-24
aI-16
aI98
aI-7
aI-103
aI29
aI31
aI70
aI127
aI89
aI65
aI-16
aI-44
aI-117
aI43
aI18
aI-105
aI126
aI42
aI124
aI108
aI63
aI-41
aI-1
aI-51
aI-54
aI111
aI63
aI-9
aI-24
aI-77
aI56
aI-7
aI-19
aI-25
aI-16
aI-28
aI-105
aI-97
aI95
aI-74
aI-77
aI88
aI-7
aI70
aI0
aI25
aI-7
aI70
aI-128
aI57
aI-7
aI-24
aI-25
aI10
aI118
aI22
aI43
aI126
aI-1
aI17
aI35
aI126
aI39
aI28
aI-122
aI-97
aI123
aI-20
aI89
aI-84
aI120
aI21
aI-60
aI-52
aI120
aI-15
aI-13
aI44
aI-18
aI44
aI-42
aI-4
aI23
aI16
aI60
aI126
aI78
aI55
aI-50
aI98
aI-113
aI111
aI63
aI-121
aI-41
aI-3
aI-10
aI51
aI12
aI-35
aI44
aI-1
aI-64
aI-48
aI97
aI-44
aI27
aI-122
aI38
aI-49
aI-6
aI96
aI104
aI-13
aI-19
aI-4
aI-10
aI15
aI44
aI22
aI86
aI62
aI-5
aI7
aI37
aI23
aI39
aI-97
aI-3
aI3
aI9
aI97
aI-57
aI-105
aI127
aI26
aI-50
aI98
aI-60
aI-105
aI127
aI-34
aI96
aI-57
aI-93
aI127
aI58
aI-40
aI89
aI-52
aI120
aI-12
aI79
aI-3
aI-73
aI-25
aI-61
aI63
aI-77
aI-6
aI-77
aI88
aI-13
aI-29
aI-97
aI-87
aI-50
aI89
aI-20
aI-15
aI-29
aI-97
aI24
aI-52
aI-9
aI-57
aI63
aI49
aI-48
aI-80
aI-6
aI23
aI3
aI-127
aI81
aI-113
aI24
aI72
aI60
aI-6
aI98
aI-96
aI102
aI-9
aI47
aI-122
aI1
aI43
aI-66
aI-5
aI23
aI-61
aI-104
aI17
aI95
aI-3
aI-117
aI65
aI-56
aI-118
aI-89
aI-2
aI-91
aI7
aI97
aI-10
aI47
aI57
aI-59
aI-102
aI-49
aI-2
aI-59
aI0
aI98
aI-113
aI71
aI-1
aI-46
aI112
aI-13
aI-70
aI-97
aI-2
aI77
aI3
aI-61
aI-86
aI-25
aI52
aI-112
aI12
aI-3
aI-45
aI64
aI-13
aI77
aI124
aI-41
aI115
aI26
aI70
aI86
aI60
aI-41
aI115
aI26
aI22
aI86
aI61
aI-89
aI65
aI98
aI-51
aI87
aI61
aI-89
aI33
aI98
aI-113
aI103
aI61
aI103
aI81
aI-26
aI117
aI31
aI-11
aI-20
aI-126
aI-126
aI-75
aI-34
aI46
aI-88
aI24
aI-7
aI-69
aI-96
aI97
aI-81
aI-73
aI11
aI40
aI-42
aI124
aI-81
aI-73
aI11
aI38
aI-10
aI120
aI-83
aI-73
aI11
aI100
aI94
aI-9
aI-71
aI-34
aI90
aI48
aI89
aI-6
aI106
aI-63
aI-26
aI-53
aI-7
aI-42
aI87
aI11
aI52
aI123
aI-68
aI-12
aI-43
aI-126
aI-60
aI-46
aI-9
aI4
aI-118
aI21
aI-1
aI9
aI36
aI59
aI-2
aI19
aI36
aI118
aI-4
aI47
aI-127
aI-7
aI-6
aI-2
aI26
aI-1
aI55
aI-31
aI-9
aI-2
aI53
aI-41
aI-118
aI103
aI80
aI115
aI95
aI24
aI-82
aI11
aI-31
aI119
aI1
aI-36
aI126
aI-53
aI-31
aI124
aI22
aI-65
aI-11
aI-13
aI-29
aI108
aI-23
aI-47
aI-25
aI-55
aI87
aI-88
aI-77
aI88
aI-7
aI-17
aI8
aI2
aI35
aI127
aI60
aI35
aI-98
aI-4
aI-87
aI105
aI49
aI63
aI15
aI-108
aI115
aI-50
aI98
aI-27
aI27
aI1
aI100
aI-28
aI27
aI1
aI-26
aI-28
aI-61
aI-13
aI-92
aI-73
aI-30
aI89
aI-84
aI-8
aI-99
aI80
aI-116
aI-8
aI-99
aI112
aI56
aI-25
aI-33
aI-100
aI-107
aI103
aI-79
aI-30
aI85
aI2
aI51
aI-29
aI-51
aI121
aI-112
aI-121
aI-27
aI89
aI-84
aI-7
aI47
aI32
aI-72
aI-9
aI27
aI62
aI-99
aI-99
aI-59
aI30
aI95
aI-5
aI1
aI-68
aI-18
aI-33
aI-14
aI51
aI28
aI-43
aI44
aI-1
aI-96
aI3
aI97
aI-44
aI27
aI43
aI38
aI-49
aI-6
aI-96
aI-48
aI124
aI59
aI-65
aI-3
aI115
aI99
aI-32
aI-80
aI-14
aI-39
aI63
aI61
aI-6
aI44
aI78
aI62
aI-5
aI-25
aI-117
aI-26
aI-8
aI-14
aI79
aI101
aI59
aI-117
aI25
aI95
aI-2
aI25
aI70
aI124
aI-6
aI-89
aI38
aI-97
aI-59
aI-118
aI71
aI-1
aI12
aI51
aI30
aI-4
aI-45
aI-55
aI-49
aI98
aI-51
aI-121
aI127
aI90
aI-100
aI-57
aI-57
aI63
aI-61
aI30
aI63
aI-2
aI25
aI94
aI-9
aI-57
aI63
aI49
aI-48
aI-80
aI-6
aI23
aI3
aI-127
aI81
aI-113
aI24
aI72
aI60
aI-6
aI98
aI-96
aI102
aI-9
aI47
aI45
aI6
aI43
aI-66
aI-5
aI-105
aI18
aI-103
aI17
aI95
aI-3
aI-53
aI16
aI-78
aI-30
aI-87
aI127
aI49
aI72
aI-104
aI-3
aI-117
aI33
aI-60
aI-102
aI-49
aI-2
aI-59
aI0
aI98
aI-113
aI71
aI-1
aI-46
aI112
aI-13
aI-70
aI-97
aI-2
aI77
aI3
aI-61
aI-86
aI-25
aI52
aI-112
aI12
aI-3
aI-45
aI64
aI-13
aI77
aI124
aI-41
aI115
aI26
aI70
aI86
aI60
aI-41
aI115
aI26
aI22
aI86
aI61
aI-89
aI65
aI98
aI-51
aI87
aI61
aI71
aI-93
aI-40
aI-29
aI89
aI-49
aI105
aI-128
aI121
aI-35
aI71
aI61
aI-69
aI-96
aI96
aI-83
aI-73
aI11
aI42
aI70
aI-2
aI46
aI104
aI-40
aI-21
aI-19
aI2
aI-118
aI53
aI-33
aI-21
aI-19
aI-126
aI-119
aI61
aI94
aI-21
aI-19
aI2
aI-103
aI-41
aI125
aI-82
aI-73
aI22
aI76
aI-106
aI-66
aI90
aI-80
aI-7
aI114
aI-66
aI-11
aI-43
aI2
aI-51
aI30
aI47
aI125
aI-75
aI32
aI-79
aI-12
aI61
aI-127
aI98
aI-59
aI127
aI2
aI-55
aI-114
aI-1
aI4
aI-119
aI29
aI-1
aI75
aI96
aI-66
aI-66
aI-65
aI-58
aI-1
aI77
aI-8
aI-43
aI-65
aI-5
aI90
aI115
aI15
aI26
aI-82
aI11
aI-31
aI119
aI1
aI60
aI-2
aI-102
aI-51
aI124
aI22
aI-41
aI122
aI-15
aI-72
aI-17
aI-4
aI122
aI-2
aI-66
aI-54
aI-100
aI-59
aI-54
aI55
aI-98
aI39
aI35
aI-33
aI-12
aI-64
aI-100
aI124
aI60
aI-65
aI-53
aI26
aI103
aI-79
aI-30
aI119
aI66
aI49
aI-30
aI119
aI-62
aI97
aI-100
aI55
aI-67
aI-73
aI-50
aI98
aI-59
aI-85
aI4
aI102
aI-58
aI-53
aI-2
aI-101
aI-61
aI-18
aI44
aI-42
aI-4
aI23
aI16
aI60
aI-2
aI-50
aI-45
aI-19
aI44
aI-10
aI-8
aI-10
aI31
aI63
aI-16
aI-119
aI111
aI-5
aI-57
aI-49
aI-33
aI-25
aI-36
aI-77
aI-104
aI-11
aI-11
aI-13
aI-73
aI57
aI-21
aI-15
aI-13
aI55
aI124
aI39
aI-97
aI-5
aI119
aI-57
aI48
aI96
aI-59
aI119
aI-1
aI122
aI-12
aI89
aI-116
aI-8
aI-22
aI-33
aI-117
aI118
aI22
aI43
aI-98
aI-6
aI55
aI118
aI69
aI60
aI-10
aI-81
aI6
aI-97
aI-59
aI-102
aI-49
aI-2
aI85
aI48
aI-113
aI71
aI-1
aI-102
aI61
aI62
aI-3
aI107
aI94
aI-9
aI-45
aI63
aI61
aI127
aI107
aI-11
aI103
aI49
aI-41
aI-81
aI-25
aI111
aI-86
aI117
aI22
aI-33
aI-60
aI119
aI61
aI-89
aI-28
aI100
aI-59
aI115
aI61
aI103
aI-119
aI97
aI-43
aI115
aI-122
aI-120
aI53
aI95
aI-11
aI-100
aI-122
aI-120
aI61
aI-98
aI-11
aI-100
aI6
aI-104
aI-41
aI125
aI-44
aI-109
aI-49
aI-33
aI78
aI118
aI22
aI83
aI47
aI-97
aI-65
aI-31
aI-117
aI120
aI94
aI111
aI23
aI80
aI-84
aI-7
aI94
aI111
aI23
aI76
aI-20
aI-15
aI90
aI111
aI107
aI48
aI-81
aI-5
aI92
aI47
aI-98
aI-65
aI83
aI-84
aI-77
aI-104
aI-7
aI-16
aI-4
aI-99
aI98
aI122
aI-68
aI-11
aI-43
aI2
aI-55
aI-46
aI87
aI11
aI18
aI75
aI95
aI-98
aI-65
aI-61
aI-118
aI-97
aI-25
aI111
aI-77
aI-29
aI63
aI65
aI98
aI-57
aI-97
aI-25
aI111
aI-8
aI-6
aI-2
aI26
aI63
aI-49
aI95
aI60
aI-128
aI-121
aI107
aI80
aI-8
aI93
aI0
aI-57
aI79
aI120
aI0
aI-117
aI123
aI125
aI120
aI0
aI55
aI-21
aI-4
aI-60
aI3
aI23
aI-84
aI-8
aI-35
aI115
aI49
aI-30
aI119
aI77
aI-122
aI-71
aI-33
aI-15
aI-128
aI37
aI43
aI94
aI37
aI48
aI51
aI30
aI-4
aI-113
aI7
aI-86
aI88
aI-13
aI-31
aI127
aI60
aI64
aI-59
aI30
aI31
aI127
aI-31
aI-127
aI105
aI94
aI-9
aI-17
aI-12
aI-49
aI-25
aI-25
aI-77
aI-50
aI89
aI-52
aI-11
aI-5
aI-4
aI108
aI-114
aI30
aI-97
aI-97
aI-49
aI122
aI-114
aI-25
aI122
aI-34
aI110
aI-104
aI-104
aI-15
aI92
aI-49
aI-38
aI61
aI28
aI-81
aI122
aI86
aI-76
aI-77
aI88
aI-13
aI89
aI-49
aI-54
aI118
aI22
aI123
aI60
aI-22
aI-39
aI-10
aI-15
aI125
aI-44
aI83
aI-25
aI103
aI-87
aI61
aI-117
aI-87
aI87
aI-25
aI-25
aI-16
aI69
aI60
aI-81
aI-73
aI75
aI34
aI-42
aI124
aI-81
aI-73
aI67
aI-118
aI61
aI94
aI-21
aI-19
aI2
aI-103
aI-41
aI125
aI-82
aI-105
aI-25
aI103
aI79
aI62
aI-117
aI-103
aI-113
aI-25
aI103
aI7
aI-9
aI120
aI-21
aI-85
aI5
aI-110
aI-91
aI-81
aI22
aI36
aI-106
aI62
aI-100
aI-97
aI-45
aI-51
aI-77
aI-8
aI106
aI-68
aI-29
aI63
aI65
aI98
aI-57
aI-49
aI-7
aI57
aI124
aI125
aI127
aI-115
aI-49
aI-7
aI-103
aI3
aI52
aI-4
aI6
aI-127
aI-31
aI-97
aI28
aI-96
aI-30
aI89
aI79
aI14
aI-48
aI97
aI-19
aI-65
aI28
aI-104
aI100
aI-59
aI-85
aI26
aI-102
aI25
aI-113
aI126
aI-52
aI1
aI41
aI-42
aI124
aI-6
aI49
aI7
aI-94
aI-40
aI-29
aI-47
aI-17
aI28
aI-128
aI-26
aI117
aI-1
aI-90
aI-98
aI-34
aI127
aI-81
aI-105
aI103
aI49
aI-11
aI122
aI-1
aI53
aI95
aI-60
aI-13
aI122
aI-21
aI-1
aI102
aI-51
aI-9
aI122
aI-53
aI-82
aI87
aI-20
aI-15
aI90
aI111
aI111
aI17
aI-13
aI-70
aI-49
aI-11
aI106
aI-1
aI85
aI-74
aI-77
aI-104
aI-7
aI-76
aI-1
aI74
aI-115
aI-57
aI91
aI95
aI73
aI36
aI75
aI95
aI13
aI17
aI75
aI31
aI-9
aI95
aI-81
aI-18
aI44
aI-66
aI26
aI-17
aI-8
aI79
aI-112
aI-40
aI-15
aI-79
aI-1
aI-102
aI-81
aI-17
aI-81
aI-15
aI-40
aI127
aI-77
aI1
aI-63
aI-12
aI-53
aI108
aI64
aI113
aI-12
aI-49
aI6
aI12
aI-53
aI47
aI-77
aI-31
aI-60
aI-102
aI47
aI-65
aI-52
aI6
aI19
aI123
aI60
aI-5
aI49
aI27
aI-54
aI-68
aI-18
aI95
aI-84
aI-41
aI126
aI-103
aI13
aI34
aI102
aI62
aI-5
aI101
aI54
aI-124
aI-40
aI-29
aI-83
aI-49
aI126
aI-103
aI13
aI32
aI-106
aI62
aI-7
aI101
aI12
aI109
aI-66
aI26
aI-17
aI-8
aI-14
aI-53
aI24
aI22
aI76
aI-65
aI-116
aI33
aI-59
aI107
aI60
aI-3
aI-46
aI-122
aI33
aI-77
aI126
aI109
aI24
aI-13
aI-27
aI124
aI-43
aI-81
aI13
aI98
aI-10
aI120
aI-82
aI-81
aI13
aI33
aI-66
aI-44
aI-25
aI-6
aI117
aI-125
aI-51
aI87
aI-29
aI29
aI-33
aI-11
aI-21
aI6
aI-126
aI85
aI-65
aI110
aI-112
aI120
aI-115
aI87
aI-3
aI-86
aI-128
aI98
aI-22
aI-85
aI2
aI-110
aI-91
aI-81
aI10
aI38
aI-66
aI-118
aI111
aI125
aI85
aI0
aI-15
aI26
aI111
aI125
aI79
aI-96
aI-7
aI-6
aI-2
aI-11
aI-8
aI53
aI-1
aI11
aI-80
aI-34
aI79
aI122
aI-41
aI-5
aI63
aI-17
aI122
aI-33
aI-26
aI93
aI-17
aI-69
aI-68
aI-21
aI-3
aI-109
aI119
aI-67
aI31
aI-14
aI-82
aI-9
aI57
aI-34
aI-11
aI62
aI-58
aI-69
aI-34
aI-81
aI120
aI-41
aI-5
aI19
aI-17
aI122
aI95
aI-30
aI93
aI-17
aI75
aI92
aI124
aI-1
aI126
aI-33
aI94
aI87
aI126
aI-25
aI30
aI-21
aI-81
aI-83
aI38
aI-90
aI-2
aI-85
aI5
aI53
aI71
aI127
aI-1
aI-41
aI89
aI-36
aI-6
aI19
aI-21
aI44
aI126
aI-6
aI-87
aI-26
aI44
aI-2
aI-12
aI107
aI1
aI31
aI91
aI-81
aI22
aI80
aI76
aI-67
aI90
aI-64
aI112
aI-12
aI106
aI1
aI-32
aI-42
aI-85
aI5
aI-120
aI-97
aI94
aI45
aI-32
aI123
aI-65
aI1
aI4
aI63
aI-74
aI62
aI10
aI110
aI-90
aI62
aI10
aI14
aI71
aI31
aI5
aI-109
aI91
aI31
aI5
aI-101
aI75
aI31
aI4
aI-10
aI-5
aI108
aI-50
aI98
aI-23
aI-127
aI-64
aI-11
aI126
aI29
aI114
aI-12
aI64
aI-32
aI122
aI95
aI-50
aI-30
aI-42
aI19
aI65
aI-21
aI125
aI52
aI-5
aI125
aI50
aI-5
aI-3
aI48
aI-5
aI-3
aI47
aI-5
aI125
aI47
aI-26
aI-55
aI31
aI65
aI-21
aI125
aI45
aI-5
aI125
aI43
aI-5
aI-3
aI41
aI-5
aI-3
aI40
aI-5
aI125
aI40
aI-26
aI-28
aI27
aI1
aI-21
aI-3
aI38
aI-5
aI125
aI37
aI-5
aI125
aI36
aI-5
aI-3
aI35
aI102
aI-60
aI-17
aI-124
aI-21
aI-3
aI34
aI-5
aI-3
aI33
aI-5
aI125
aI33
aI102
aI-58
aI-85
aI4
aI-21
aI-3
aI32
aI-5
aI125
aI32
aI102
aI-51
aI127
aI1
aI-41
aI-5
aI64
aI-4
aI126
aI16
aI-113
aI-1
aI2
aI-84
aI-9
aI-125
aI92
aI-13
aI-70
aI-1
aI-99
aI-25
aI62
aI-80
aI127
aI-3
aI-55
aI-116
aI-52
aI-13
aI-94
aI63
aI105
aI-103
aI-29
aI-1
aI110
aI-52
aI89
aI-36
aI126
aI-120
aI85
aI-49
aI-30
aI87
aI95
aI110
aI-2
aI-77
aI-8
aI111
aI-67
aI62
aI-114
aI-1
aI-12
aI-5
aI124
aI-5
aI-86
aI114
aI22
aI75
aI47
aI-113
aI-117
aI97
aI-24
aI-27
aI113
aI1
aI30
aI-67
aI60
aI46
aI-60
aI-91
aI-105
aI-57
aI-59
aI-30
aI-89
aI87
aI-25
aI-37
aI83
aI119
aI22
aI75
aI31
aI5
aI15
aI67
aI31
aI5
aI-125
aI71
aI31
aI5
aI-117
aI75
aI31
aI5
aI-41
aI-17
aI111
aI90
aI15
aI4
aI-50
aI-17
aI119
aI-98
aI-59
aI-44
aI3
aI-127
aI-21
aI-9
aI71
aI-59
aI-93
aI7
aI2
aI-51
aI-83
aI7
aI-25
aI91
aI-57
aI62
aI-117
aI-107
aI63
aI65
aI-42
aI-17
aI63
aI-118
aI-109
aI63
aI-126
aI-52
aI-109
aI63
aI-25
aI-37
aI76
aI61
aI-117
aI-107
aI111
aI4
aI-84
aI-33
aI7
aI52
aI39
aI-33
aI8
aI88
aI-65
aI-33
aI119
aI-61
aI-114
aI-33
aI9
aI-41
aI-17
aI-33
aI-103
aI17
aI-65
aI-45
aI-84
aI-33
aI-81
aI-69
aI96
aI-57
aI-85
aI4
aI-21
aI-9
aI-27
aI22
aI51
aI94
aI-1
aI-3
aI47
aI-20
aI-7
aI47
aI-96
aI89
aI-13
aI-21
aI-17
aI7
aI96
aI-113
aI-1
aI2
aI-84
aI-33
aI-113
aI-69
aI-26
aI117
aI-1
aI125
aI94
aI-43
aI1
aI-9
aI49
aI-58
aI60
aI-50
aI-123
aI98
aI-8
aI-35
aI7
aI-36
aI-16
aI-12
aI-33
aI7
aI28
aI-72
aI-22
aI-23
aI3
aI78
aI-4
aI-83
aI-49
aI7
aI-36
aI-17
aI91
aI-123
aI-11
aI-35
aI99
aI125
aI113
aI123
aI-104
aI-6
aI104
aI-31
aI112
aI-12
aI-47
aI18
aI-28
aI-42
aI-57
aI22
aI-103
aI75
aI-97
aI-50
aI-121
aI-89
aI-26
aI44
aI-106
aI30
aI8
aI12
aI67
aI15
aI4
aI-110
aI71
aI15
aI4
aI-102
aI91
aI15
aI-49
aI-121
aI74
aI118
aI22
aI43
aI127
aI4
aI-127
aI-111
aI63
aI-126
aI-60
aI-109
aI63
aI-126
aI126
aI61
aI-41
aI-7
aI70
aI64
aI88
aI-7
aI38
aI8
aI25
aI-7
aI70
aI-128
aI57
aI-7
aI114
aI62
aI-52
aI-48
aI-77
aI88
aI-15
aI59
aI-95
aI24
aI-15
aI-5
aI-97
aI-65
aI-92
aI114
aI-68
aI74
aI64
aI86
aI-68
aI74
aI96
aI102
aI-68
aI62
aI31
aI-48
aI-52
aI-77
aI88
aI-13
aI95
aI64
aI112
aI127
aI127
aI16
aI-10
aI-8
aI47
aI0
aI-71
aI-2
aI-2
aI12
aI94
aI-9
aI-21
aI-17
aI-77
aI60
aI32
aI30
aI103
aI76
aI49
aI-3
aI-83
aI3
aI98
aI56
aI-3
aI-42
aI1
aI1
aI-18
aI-6
aI-23
aI-128
aI16
aI-65
aI-11
aI-24
aI-128
aI-8
aI61
aI-39
aI-42
aI19
aI123
aI15
aI75
aI15
aI44
aI26
aI-122
aI30
aI-76
aI-100
aI60
aI122
aI-48
aI2
aI115
aI-21
aI-47
aI126
aI123
aI-39
aI-49
aI98
aI-27
aI-113
aI32
aI48
aI-14
aI71
aI-112
aI120
aI-14
aI71
aI80
aI49
aI-9
aI91
aI5
aI63
aI-117
aI-107
aI111
aI-2
aI-112
aI-111
aI111
aI4
aI-104
aI-109
aI15
aI-5
aI-83
aI-25
aI-98
aI-59
aI-118
aI-33
aI65
aI-60
aI-120
aI-33
aI9
aI127
aI-7
aI79
aI-57
aI-85
aI4
aI100
aI-59
aI-85
aI4
aI102
aI-58
aI-101
aI-3
aI-106
aI98
aI-98
aI-59
aI-102
aI-1
aI2
aI-126
aI-25
aI-5
aI-70
aI97
aI-113
aI-1
aI2
aI-112
aI-5
aI-5
aI-86
aI-16
aI-70
aI-33
aI-33
aI31
aI97
aI-61
aI21
aI-53
aI-49
aI-36
aI112
aI-61
aI-24
aI47
aI55
aI28
aI120
aI-22
aI-59
aI13
aI39
aI46
aI-3
aI-36
aI112
aI-65
aI-46
aI-23
aI-4
aI-10
aI-13
aI-93
aI-77
aI-104
aI-7
aI-19
aI-25
aI-103
aI125
aI22
aI79
aI126
aI-5
aI-7
aI-117
aI-18
aI124
aI-14
aI115
aI101
aI63
aI-117
aI-103
aI79
aI126
aI-114
aI-38
aI-77
aI56
aI-7
aI-24
aI103
aI110
aI32
aI-80
aI-30
aI-45
aI-49
aI-36
aI64
aI102
aI-60
aI-121
aI-97
aI-71
aI97
aI-56
aI-118
aI7
aI63
aI115
aI-61
aI-124
aI-29
aI103
aI110
aI16
aI-79
aI-26
aI-57
aI-49
aI-36
aI16
aI98
aI-113
aI31
aI63
aI115
aI3
aI-104
aI-41
aI-3
aI-7
aI62
aI52
aI-122
aI110
aI-106
aI127
aI96
aI-24
aI48
aI-22
aI13
aI67
aI-109
aI103
aI125
aI48
aI-76
aI25
aI63
aI-113
aI119
aI62
aI-5
aI7
aI6
aI6
aI51
aI-97
aI-3
aI3
aI3
aI-101
aI-7
aI-13
aI112
aI-57
aI-105
aI127
aI96
aI88
aI50
aI-29
aI-53
aI63
aI48
aI-20
aI48
aI-3
aI3
aI-125
aI-110
aI21
aI-113
aI-2
aI-127
aI65
aI-61
aI-16
aI15
aI12
aI41
aI-42
aI124
aI-8
aI7
aI6
aI20
aI123
aI124
aI-4
aI3
aI-61
aI-103
aI-41
aI-3
aI124
aI-97
aI62
aI6
aI26
aI86
aI-1
aI98
aI32
aI48
aI-22
aI17
aI3
aI-119
aI71
aI95
aI12
aI-44
aI-20
aI-2
aI-59
aI48
aI96
aI-59
aI119
aI-1
aI98
aI24
aI-77
aI126
aI30
aI-22
aI120
aI-22
aI95
aI12
aI34
aI102
aI60
aI-11
aI47
aI-122
aI32
aI123
aI62
aI-5
aI23
aI67
aI-128
aI-47
aI-65
aI24
aI-64
aI-20
aI-15
aI-23
aI95
aI26
aI46
aI78
aI-1
aI-90
aI-127
aI97
aI-43
aI115
aI26
aI72
aI-122
aI-2
aI105
aI-96
aI89
aI63
aI47
aI116
aI60
aI-41
aI115
aI26
aI38
aI102
aI60
aI-41
aI115
aI26
aI68
aI-10
aI124
aI-43
aI115
aI26
aI4
aI102
aI61
aI-89
aI33
aI102
aI-113
aI71
aI61
aI-89
aI1
aI98
aI-44
aI-77
aI11
aI10
aI-42
aI122
aI-69
aI-96
aI98
aI-28
aI-17
aI-126
aI-122
aI-67
aI-34
aI46
aI-96
aI88
aI-13
aI-67
aI-34
aI46
aI-104
aI-40
aI-29
aI-75
aI-34
aI46
aI-112
aI121
aI-35
aI-25
aI122
aI107
aI-63
aI100
aI-23
aI-85
aI5
aI-101
aI-41
aI-49
aI-9
aI60
aI-34
aI-6
aI106
aI-127
aI100
aI-23
aI-85
aI5
aI-119
aI-91
aI-17
aI9
aI20
aI43
aI-2
aI19
aI72
aI118
aI-4
aI39
aI72
aI-20
aI-8
aI95
aI2
aI-13
aI-11
aI-3
aI53
aI-2
aI111
aI-62
aI-6
aI121
aI-35
aI-2
aI-7
aI-41
aI-2
aI-7
aI-46
aI-2
aI121
aI-50
aI-2
aI121
aI-54
aI-2
aI-7
aI-58
aI-2
aI-7
aI-61
aI-2
aI121
aI-63
aI-2
aI-66
aI127
aI127
aI127
aI-65
aI-65
aI-97
aI-33
aI-33
aI-57
aI-33
aI-11
aI125
aI-4
aI-30
aI-17
aI-5
aI44
aI93
aI89
aI-33
aI39
aI-33
aI-11
aI-3
aI-19
aI93
aI-33
aI-97
aI-34
aI-11
aI125
aI-26
aI93
aI-33
aI55
aI-34
aI-11
aI-3
aI-32
aI93
aI-33
aI-17
aI-35
aI-11
aI125
aI-35
aI93
aI-33
aI-57
aI-35
aI-11
aI-3
aI-37
aI93
aI-33
aI-65
aI45
aI126
aI127
aI-1
aI-74
aI126
aI47
aI-24
aI119
aI-67
aI-96
aI-33
aI-11
aI-126
aI126
aI-41
aI11
aI106
aI-114
aI126
aI47
aI40
aI-36
aI-6
aI-67
aI32
aI114
aI-19
aI55
aI45
aI-56
aI92
aI127
aI-97
aI-79
aI94
aI45
aI-32
aI-79
aI-12
aI106
aI1
aI-51
aI-48
aI-85
aI5
aI-124
aI71
aI-81
aI22
aI64
aI-18
aI-13
aI-127
aI11
aI48
aI-9
aI-25
aI85
aI-21
aI-93
aI-32
aI98
aI-23
aI-93
aI-32
aI97
aI-24
aI-93
aI96
aI-16
aI-24
aI-93
aI96
aI113
aI-97
aI23
aI16
aI92
aI-97
aI-121
aI-84
aI7
aI2
aI-25
aI-13
aI-46
aI89
aI76
aI61
aI16
aI-72
aI62
aI-113
aI-119
aI71
aI15
aI4
aI-102
aI-13
aI124
aI119
aI-2
aI8
aI90
aI-97
aI79
aI-10
aI-25
aI-115
aI-3
aI121
aI98
aI127
aI126
aI48
aI79
aI-2
aI8
aI90
aI-49
aI-1
aI-3
aI-4
aI-34
aI-49
aI-29
aI-3
aI-68
aI-35
aI-49
aI87
aI115
aI-14
aI-115
aI-128
aI-11
aI-68
aI-36
aI-49
aI-65
aI-3
aI124
aI-37
aI-49
aI51
aI51
aI-30
aI119
aI-62
aI-11
aI-68
aI-38
aI-49
aI-93
aI-3
aI-4
aI49
aI51
aI94
aI37
aI88
aI-49
aI-101
aI-3
aI124
aI49
aI107
aI-2
aI11
aI-72
aI-98
aI47
aI126
aI-34
aI120
aI-4
aI23
aI96
aI61
aI111
aI-82
aI121
aI-35
aI-1
aI63
aI-32
aI31
aI-17
aI-1
aI-94
aI116
aI111
aI-104
aI-28
aI89
aI0
aI0
aI0
aI0
aI73
aI69
aI78
aI68
aI-82
aI66
aI96
aI-126
aI4532
tp3
Rp4
csage.structure.factory
generic_factory_unpickle
p5
(csage.structure.factory
lookup_global
p6
(S'FiniteField'
p7
tp8
Rp9
(I7
I6
tp10
(csage.rings.integer
make_integer
p11
(S'80'
p12
tp13
Rp14
(S'y'
p15
tp16
csage.rings.polynomial.polynomial_gf2x
make_element
p17
(csage.rings.polynomial.polynomial_ring_constructor
PolynomialRing
p18
(g5
(g9
g10
(g11
(S'2'
p19
tp20
Rp21
(S'x'
p22
tp23
NS'modn'
p24
S'{}'
p25
g21
g11
(S'1'
p26
tp27
Rp28
I01
tp29
(dp30
tp31
Rp32
g22
NI00
tp33
Rp34
((lp35
csage.rings.finite_rings.integer_mod
Mod
p36
(g11
(g26
tp37
Rp38
g11
(g19
tp39
Rp40
g32
tp41
Rp42
ag36
(g11
(S'0'
p43
tp44
Rp45
g40
g32
tp46
Rp47
ag42
ag42
ag42
ag47
ag47
ag47
ag42
aI00
I00
tp48
tp49
Rp50
S'givaro'
p51
S'{}'
p52
g11
(g19
tp53
Rp54
I8
I01
tp55
(dp56
tp57
Rp58
I1925
I15
tp59
Rp60
.