(lp0
csage.matrix.matrix_mod2_dense
unpickle_matrix_mod2_dense_v1
p1
(I6
I12
(lp2
I-119
aI80
aI78
aI71
aI13
aI10
aI26
aI10
aI0
aI0
aI0
aI13
aI73
aI72
aI68
aI82
aI0
aI0
aI0
aI12
aI0
aI0
aI0
aI6
aI1
aI3
aI0
aI0
aI0
aI-51
aI32
aI-19
aI-62
aI0
aI0
aI0
aI6
aI80
aI76
aI84
aI69
aI0
aI0
aI0
aI-1
aI-1
aI-1
aI-91
aI-39
aI-97
aI-35
aI0
aI0
aI0
aI9
aI112
aI72
aI89
aI115
aI0
aI0
aI14
aI-60
aI0
aI0
aI14
aI-60
aI1
aI-107
aI43
aI14
aI27
aI0
aI0
aI0
aI27
aI73
aI68
aI65
aI84
aI8
aI-103
aI99
aI-104
aI17
aI-64
aI112
aI107
aI1
aI-61
aI67
aI6
aI-122
aI79
aI11
aI24
aI126
aI78
aI96
aI-8
aI19
aI0
aI0
aI66
aI54
aI7
aI-85
aI24
aI-61
aI-67
aI89
aI0
aI0
aI0
aI0
aI73
aI69
aI78
aI68
aI-82
aI66
aI96
aI-126
aI123
tp3
Rp4
ag1
(I6
I12
(lp5
I-119
aI80
aI78
aI71
aI13
aI10
aI26
aI10
aI0
aI0
aI0
aI13
aI73
aI72
aI68
aI82
aI0
aI0
aI0
aI12
aI0
aI0
aI0
aI6
aI1
aI3
aI0
aI0
aI0
aI-51
aI32
aI-19
aI-62
aI0
aI0
aI0
aI6
aI80
aI76
aI84
aI69
aI0
aI0
aI0
aI-1
aI-1
aI-1
aI-91
aI-39
aI-97
aI-35
aI0
aI0
aI0
aI9
aI112
aI72
aI89
aI115
aI0
aI0
aI14
aI-60
aI0
aI0
aI14
aI-60
aI1
aI-107
aI43
aI14
aI27
aI0
aI0
aI0
aI27
aI73
aI68
aI65
aI84
aI8
aI-103
aI99
aI-104
aI17
aI-64
aI112
aI107
aI1
aI-61
aI-93
aI5
aI12
aI-97
aI22
aI48
aI-4
aI-100
aI-64
aI-16
aI39
aI0
aI0
aI72
aI-127
aI8
aI76
aI-111
aI-38
aI-1
aI-22
aI0
aI0
aI0
aI0
aI73
aI69
aI78
aI68
aI-82
aI66
aI96
aI-126
aI123
tp6
Rp7
ag1
(I6
I12
(lp8
I-119
aI80
aI78
aI71
aI13
aI10
aI26
aI10
aI0
aI0
aI0
aI13
aI73
aI72
aI68
aI82
aI0
aI0
aI0
aI12
aI0
aI0
aI0
aI6
aI1
aI3
aI0
aI0
aI0
aI-51
aI32
aI-19
aI-62
aI0
aI0
aI0
aI6
aI80
aI76
aI84
aI69
aI0
aI0
aI0
aI-1
aI-1
aI-1
aI-91
aI-39
aI-97
aI-35
aI0
aI0
aI0
aI9
aI112
aI72
aI89
aI115
aI0
aI0
aI14
aI-60
aI0
aI0
aI14
aI-60
aI1
aI-107
aI43
aI14
aI27
aI0
aI0
aI0
aI27
aI73
aI68
aI65
aI84
aI8
aI-103
aI99
aI-104
aI-3
aI-127
aI-31
aI38
aI3
aI-61
aI-93
aI5
aI12
aI-97
aI22
aI48
aI-4
aI-100
aI-64
aI-16
aI39
aI0
aI0
aI74
aI-122
aI8
aI78
aI16
aI58
aI110
aI41
aI0
aI0
aI0
aI0
aI73
aI69
aI78
aI68
aI-82
aI66
aI96
aI-126
aI123
tp9
Rp10
ag1
(I6
I12
(lp11
I-119
aI80
aI78
aI71
aI13
aI10
aI26
aI10
aI0
aI0
aI0
aI13
aI73
aI72
aI68
aI82
aI0
aI0
aI0
aI12
aI0
aI0
aI0
aI6
aI1
aI3
aI0
aI0
aI0
aI-51
aI32
aI-19
aI-62
aI0
aI0
aI0
aI6
aI80
aI76
aI84
aI69
aI0
aI0
aI0
aI-1
aI-1
aI-1
aI-91
aI-39
aI-97
aI-35
aI0
aI0
aI0
aI9
aI112
aI72
aI89
aI115
aI0
aI0
aI14
aI-60
aI0
aI0
aI14
aI-60
aI1
aI-107
aI43
aI14
aI27
aI0
aI0
aI0
aI27
aI73
aI68
aI65
aI84
aI8
aI-103
aI99
aI-104
aI17
aI-64
aI112
aI-109
aI-127
aI-31
aI-47
aI2
aI-122
aI79
aI11
aI24
aI126
aI78
aI96
aI-8
aI19
aI0
aI0
aI64
aI83
aI7
aI-85
aI-86
aI109
aI52
aI-119
aI0
aI0
aI0
aI0
aI73
aI69
aI78
aI68
aI-82
aI66
aI96
aI-126
aI123
tp12
Rp13
ag1
(I6
I12
(lp14
I-119
aI80
aI78
aI71
aI13
aI10
aI26
aI10
aI0
aI0
aI0
aI13
aI73
aI72
aI68
aI82
aI0
aI0
aI0
aI12
aI0
aI0
aI0
aI6
aI1
aI3
aI0
aI0
aI0
aI-51
aI32
aI-19
aI-62
aI0
aI0
aI0
aI6
aI80
aI76
aI84
aI69
aI0
aI0
aI0
aI-1
aI-1
aI-1
aI-91
aI-39
aI-97
aI-35
aI0
aI0
aI0
aI9
aI112
aI72
aI89
aI115
aI0
aI0
aI14
aI-60
aI0
aI0
aI14
aI-60
aI1
aI-107
aI43
aI14
aI27
aI0
aI0
aI0
aI27
aI73
aI68
aI65
aI84
aI8
aI-103
aI99
aI-104
aI-3
aI-127
aI-31
aI-42
aI2
aI-122
aI-121
aI12
aI12
aI-97
aI22
aI48
aI-4
aI-100
aI-64
aI-16
aI39
aI0
aI0
aI76
aI105
aI8
aI78
aI58
aI-103
aI55
aI72
aI0
aI0
aI0
aI0
aI73
aI69
aI78
aI68
aI-82
aI66
aI96
aI-126
aI123
tp15
Rp16
ag1
(I6
I12
(lp17
I-119
aI80
aI78
aI71
aI13
aI10
aI26
aI10
aI0
aI0
aI0
aI13
aI73
aI72
aI68
aI82
aI0
aI0
aI0
aI12
aI0
aI0
aI0
aI6
aI1
aI3
aI0
aI0
aI0
aI-51
aI32
aI-19
aI-62
aI0
aI0
aI0
aI6
aI80
aI76
aI84
aI69
aI0
aI0
aI0
aI-1
aI-1
aI-1
aI-91
aI-39
aI-97
aI-35
aI0
aI0
aI0
aI9
aI112
aI72
aI89
aI115
aI0
aI0
aI14
aI-60
aI0
aI0
aI14
aI-60
aI1
aI-107
aI43
aI14
aI27
aI0
aI0
aI0
aI27
aI73
aI68
aI65
aI84
aI8
aI-103
aI99
aI-104
aI-3
aI-127
aI-31
aI38
aI3
aI-61
aI67
aI6
aI-122
aI79
aI11
aI24
aI126
aI78
aI96
aI-8
aI19
aI0
aI0
aI68
aI59
aI7
aI-83
aI28
aI-69
aI-6
aI2
aI0
aI0
aI0
aI0
aI73
aI69
aI78
aI68
aI-82
aI66
aI96
aI-126
aI123
tp18
Rp19
ag1
(I6
I12
(lp20
I-119
aI80
aI78
aI71
aI13
aI10
aI26
aI10
aI0
aI0
aI0
aI13
aI73
aI72
aI68
aI82
aI0
aI0
aI0
aI12
aI0
aI0
aI0
aI6
aI1
aI3
aI0
aI0
aI0
aI-51
aI32
aI-19
aI-62
aI0
aI0
aI0
aI6
aI80
aI76
aI84
aI69
aI0
aI0
aI0
aI-1
aI-1
aI-1
aI-91
aI-39
aI-97
aI-35
aI0
aI0
aI0
aI9
aI112
aI72
aI89
aI115
aI0
aI0
aI14
aI-60
aI0
aI0
aI14
aI-60
aI1
aI-107
aI43
aI14
aI27
aI0
aI0
aI0
aI27
aI73
aI68
aI65
aI84
aI8
aI-103
aI99
aI-104
aI17
aI-64
aI112
aI107
aI1
aI-61
aI67
aI6
aI-122
aI-113
aI12
aI12
aI63
aI39
aI48
aI-4
aI9
aI0
aI0
aI61
aI-50
aI7
aI10
aI-114
aI-68
aI17
aI-44
aI0
aI0
aI0
aI0
aI73
aI69
aI78
aI68
aI-82
aI66
aI96
aI-126
aI123
tp21
Rp22
ag1
(I6
I12
(lp23
I-119
aI80
aI78
aI71
aI13
aI10
aI26
aI10
aI0
aI0
aI0
aI13
aI73
aI72
aI68
aI82
aI0
aI0
aI0
aI12
aI0
aI0
aI0
aI6
aI1
aI3
aI0
aI0
aI0
aI-51
aI32
aI-19
aI-62
aI0
aI0
aI0
aI6
aI80
aI76
aI84
aI69
aI0
aI0
aI0
aI-1
aI-1
aI-1
aI-91
aI-39
aI-97
aI-35
aI0
aI0
aI0
aI9
aI112
aI72
aI89
aI115
aI0
aI0
aI14
aI-60
aI0
aI0
aI14
aI-60
aI1
aI-107
aI43
aI14
aI27
aI0
aI0
aI0
aI27
aI73
aI68
aI65
aI84
aI8
aI-103
aI99
aI-104
aI-3
aI-127
aI-31
aI-42
aI2
aI-122
aI71
aI11
aI24
aI62
aI50
aI48
aI-4
aI-100
aI-64
aI-16
aI39
aI0
aI0
aI78
aI76
aI8
aI78
aI-38
aI-28
aI-128
aI-94
aI0
aI0
aI0
aI0
aI73
aI69
aI78
aI68
aI-82
aI66
aI96
aI-126
aI123
tp24
Rp25
ag1
(I6
I12
(lp26
I-119
aI80
aI78
aI71
aI13
aI10
aI26
aI10
aI0
aI0
aI0
aI13
aI73
aI72
aI68
aI82
aI0
aI0
aI0
aI12
aI0
aI0
aI0
aI6
aI1
aI3
aI0
aI0
aI0
aI-51
aI32
aI-19
aI-62
aI0
aI0
aI0
aI6
aI80
aI76
aI84
aI69
aI0
aI0
aI0
aI-1
aI-1
aI-1
aI-91
aI-39
aI-97
aI-35
aI0
aI0
aI0
aI9
aI112
aI72
aI89
aI115
aI0
aI0
aI14
aI-60
aI0
aI0
aI14
aI-60
aI1
aI-107
aI43
aI14
aI27
aI0
aI0
aI0
aI27
aI73
aI68
aI65
aI84
aI8
aI-103
aI99
aI-104
aI17
aI-64
aI112
aI107
aI1
aI-61
aI-93
aI5
aI12
aI31
aI25
aI24
aI126
aI78
aI96
aI-8
aI19
aI0
aI0
aI68
aI25
aI7
aI-85
aI52
aI-64
aI-98
aI-19
aI0
aI0
aI0
aI0
aI73
aI69
aI78
aI68
aI-82
aI66
aI96
aI-126
aI123
tp27
Rp28
ag1
(I6
I12
(lp29
I-119
aI80
aI78
aI71
aI13
aI10
aI26
aI10
aI0
aI0
aI0
aI13
aI73
aI72
aI68
aI82
aI0
aI0
aI0
aI12
aI0
aI0
aI0
aI6
aI1
aI3
aI0
aI0
aI0
aI-51
aI32
aI-19
aI-62
aI0
aI0
aI0
aI6
aI80
aI76
aI84
aI69
aI0
aI0
aI0
aI-1
aI-1
aI-1
aI-91
aI-39
aI-97
aI-35
aI0
aI0
aI0
aI9
aI112
aI72
aI89
aI115
aI0
aI0
aI14
aI-60
aI0
aI0
aI14
aI-60
aI1
aI-107
aI43
aI14
aI27
aI0
aI0
aI0
aI27
aI73
aI68
aI65
aI84
aI8
aI-103
aI99
aI-104
aI-3
aI-127
aI-31
aI38
aI3
aI-61
aI-93
aI5
aI12
aI31
aI25
aI24
aI126
aI78
aI96
aI-8
aI19
aI0
aI0
aI70
aI30
aI7
aI-83
aI-78
aI77
aI-53
aI55
aI0
aI0
aI0
aI0
aI73
aI69
aI78
aI68
aI-82
aI66
aI96
aI-126
aI123
tp30
Rp31
ag1
(I6
I12
(lp32
I-119
aI80
aI78
aI71
aI13
aI10
aI26
aI10
aI0
aI0
aI0
aI13
aI73
aI72
aI68
aI82
aI0
aI0
aI0
aI12
aI0
aI0
aI0
aI6
aI1
aI3
aI0
aI0
aI0
aI-51
aI32
aI-19
aI-62
aI0
aI0
aI0
aI6
aI80
aI76
aI84
aI69
aI0
aI0
aI0
aI-1
aI-1
aI-1
aI-91
aI-39
aI-97
aI-35
aI0
aI0
aI0
aI9
aI112
aI72
aI89
aI115
aI0
aI0
aI14
aI-60
aI0
aI0
aI14
aI-60
aI1
aI-107
aI43
aI14
aI27
aI0
aI0
aI0
aI27
aI73
aI68
aI65
aI84
aI8
aI-103
aI99
aI-104
aI17
aI-64
aI112
aI-109
aI-127
aI-31
aI-47
aI2
aI-122
aI-113
aI12
aI12
aI63
aI39
aI48
aI-4
aI9
aI0
aI0
aI59
aI-21
aI7
aI10
aI-61
aI-22
aI-126
aI-109
aI0
aI0
aI0
aI0
aI73
aI69
aI78
aI68
aI-82
aI66
aI96
aI-126
aI123
tp33
Rp34
ag1
(I6
I12
(lp35
I-119
aI80
aI78
aI71
aI13
aI10
aI26
aI10
aI0
aI0
aI0
aI13
aI73
aI72
aI68
aI82
aI0
aI0
aI0
aI12
aI0
aI0
aI0
aI6
aI1
aI3
aI0
aI0
aI0
aI-51
aI32
aI-19
aI-62
aI0
aI0
aI0
aI6
aI80
aI76
aI84
aI69
aI0
aI0
aI0
aI-1
aI-1
aI-1
aI-91
aI-39
aI-97
aI-35
aI0
aI0
aI0
aI9
aI112
aI72
aI89
aI115
aI0
aI0
aI14
aI-60
aI0
aI0
aI14
aI-60
aI1
aI-107
aI43
aI14
aI27
aI0
aI0
aI0
aI27
aI73
aI68
aI65
aI84
aI8
aI-103
aI99
aI-104
aI-3
aI-127
aI-31
aI-42
aI2
aI-122
aI-121
aI12
aI12
aI31
aI25
aI24
aI126
aI78
aI96
aI-8
aI19
aI0
aI0
aI72
aI1
aI7
aI-83
aI-24
aI-98
aI-55
aI105
aI0
aI0
aI0
aI0
aI73
aI69
aI78
aI68
aI-82
aI66
aI96
aI-126
aI123
tp36
Rp37
ag1
(I6
I12
(lp38
I-119
aI80
aI78
aI71
aI13
aI10
aI26
aI10
aI0
aI0
aI0
aI13
aI73
aI72
aI68
aI82
aI0
aI0
aI0
aI12
aI0
aI0
aI0
aI6
aI1
aI3
aI0
aI0
aI0
aI-51
aI32
aI-19
aI-62
aI0
aI0
aI0
aI6
aI80
aI76
aI84
aI69
aI0
aI0
aI0
aI-1
aI-1
aI-1
aI-91
aI-39
aI-97
aI-35
aI0
aI0
aI0
aI9
aI112
aI72
aI89
aI115
aI0
aI0
aI14
aI-60
aI0
aI0
aI14
aI-60
aI1
aI-107
aI43
aI14
aI27
aI0
aI0
aI0
aI27
aI73
aI68
aI65
aI84
aI8
aI-103
aI99
aI-104
aI-3
aI-127
aI-31
aI-42
aI2
aI-122
aI71
aI11
aI24
aI62
aI45
aI96
aI-8
aI57
aI-127
aI-31
aI79
aI0
aI0
aI82
aI-76
aI8
aI-17
aI75
aI40
aI102
aI20
aI0
aI0
aI0
aI0
aI73
aI69
aI78
aI68
aI-82
aI66
aI96
aI-126
aI123
tp39
Rp40
ag1
(I6
I12
(lp41
I-119
aI80
aI78
aI71
aI13
aI10
aI26
aI10
aI0
aI0
aI0
aI13
aI73
aI72
aI68
aI82
aI0
aI0
aI0
aI12
aI0
aI0
aI0
aI6
aI1
aI3
aI0
aI0
aI0
aI-51
aI32
aI-19
aI-62
aI0
aI0
aI0
aI6
aI80
aI76
aI84
aI69
aI0
aI0
aI0
aI-1
aI-1
aI-1
aI-91
aI-39
aI-97
aI-35
aI0
aI0
aI0
aI9
aI112
aI72
aI89
aI115
aI0
aI0
aI14
aI-60
aI0
aI0
aI14
aI-60
aI1
aI-107
aI43
aI14
aI27
aI0
aI0
aI0
aI27
aI73
aI68
aI65
aI84
aI8
aI-103
aI99
aI-104
aI17
aI-64
aI112
aI-109
aI-127
aI-31
aI33
aI3
aI-61
aI-89
aI5
aI12
aI63
aI39
aI48
aI-4
aI9
aI0
aI0
aI58
aI8
aI7
aI10
aI32
aI118
aI-74
aI-11
aI0
aI0
aI0
aI0
aI73
aI69
aI78
aI68
aI-82
aI66
aI96
aI-126
aI123
tp42
Rp43
ag1
(I6
I12
(lp44
I-119
aI80
aI78
aI71
aI13
aI10
aI26
aI10
aI0
aI0
aI0
aI13
aI73
aI72
aI68
aI82
aI0
aI0
aI0
aI12
aI0
aI0
aI0
aI6
aI1
aI3
aI0
aI0
aI0
aI-51
aI32
aI-19
aI-62
aI0
aI0
aI0
aI6
aI80
aI76
aI84
aI69
aI0
aI0
aI0
aI-1
aI-1
aI-1
aI-91
aI-39
aI-97
aI-35
aI0
aI0
aI0
aI9
aI112
aI72
aI89
aI115
aI0
aI0
aI14
aI-60
aI0
aI0
aI14
aI-60
aI1
aI-107
aI43
aI14
aI27
aI0
aI0
aI0
aI26
aI73
aI68
aI65
aI84
aI8
aI-103
aI99
aI-104
aI17
aI-64
aI112
aI-109
aI-127
aI-31
aI33
aI3
aI-61
aI71
aI6
aI-122
aI95
aI6
aI12
aI127
aI2
aI0
aI52
aI37
aI6
aI10
aI-105
aI39
aI120
aI125
aI0
aI0
aI0
aI0
aI73
aI69
aI78
aI68
aI-82
aI66
aI96
aI-126
aI122
tp45
Rp46
ag1
(I6
I12
(lp47
I-119
aI80
aI78
aI71
aI13
aI10
aI26
aI10
aI0
aI0
aI0
aI13
aI73
aI72
aI68
aI82
aI0
aI0
aI0
aI12
aI0
aI0
aI0
aI6
aI1
aI3
aI0
aI0
aI0
aI-51
aI32
aI-19
aI-62
aI0
aI0
aI0
aI6
aI80
aI76
aI84
aI69
aI0
aI0
aI0
aI-1
aI-1
aI-1
aI-91
aI-39
aI-97
aI-35
aI0
aI0
aI0
aI9
aI112
aI72
aI89
aI115
aI0
aI0
aI14
aI-60
aI0
aI0
aI14
aI-60
aI1
aI-107
aI43
aI14
aI27
aI0
aI0
aI0
aI27
aI73
aI68
aI65
aI84
aI8
aI-103
aI99
aI-104
aI-3
aI-127
aI-31
aI-42
aI2
aI-122
aI71
aI11
aI24
aI62
aI50
aI48
aI-4
aI50
aI96
aI-8
aI19
aI0
aI0
aI76
aI-47
aI7
aI-17
aI127
aI-109
aI-50
aI65
aI0
aI0
aI0
aI0
aI73
aI69
aI78
aI68
aI-82
aI66
aI96
aI-126
aI123
tp48
Rp49
ag1
(I6
I12
(lp50
I-119
aI80
aI78
aI71
aI13
aI10
aI26
aI10
aI0
aI0
aI0
aI13
aI73
aI72
aI68
aI82
aI0
aI0
aI0
aI12
aI0
aI0
aI0
aI6
aI1
aI3
aI0
aI0
aI0
aI-51
aI32
aI-19
aI-62
aI0
aI0
aI0
aI6
aI80
aI76
aI84
aI69
aI0
aI0
aI0
aI-1
aI-1
aI-1
aI-91
aI-39
aI-97
aI-35
aI0
aI0
aI0
aI9
aI112
aI72
aI89
aI115
aI0
aI0
aI14
aI-60
aI0
aI0
aI14
aI-60
aI1
aI-107
aI43
aI14
aI27
aI0
aI0
aI0
aI27
aI73
aI68
aI65
aI84
aI8
aI-103
aI99
aI-104
aI17
aI-64
aI112
aI107
aI1
aI-61
aI67
aI6
aI-122
aI-113
aI12
aI12
aI-65
aI12
aI24
aI-2
aI4
aI0
aI0
aI60
aI83
aI6
aI-85
aI-95
aI-122
aI116
aI-109
aI0
aI0
aI0
aI0
aI73
aI69
aI78
aI68
aI-82
aI66
aI96
aI-126
aI123
tp51
Rp52
ag1
(I6
I12
(lp53
I-119
aI80
aI78
aI71
aI13
aI10
aI26
aI10
aI0
aI0
aI0
aI13
aI73
aI72
aI68
aI82
aI0
aI0
aI0
aI12
aI0
aI0
aI0
aI6
aI1
aI3
aI0
aI0
aI0
aI-51
aI32
aI-19
aI-62
aI0
aI0
aI0
aI6
aI80
aI76
aI84
aI69
aI0
aI0
aI0
aI-1
aI-1
aI-1
aI-91
aI-39
aI-97
aI-35
aI0
aI0
aI0
aI9
aI112
aI72
aI89
aI115
aI0
aI0
aI14
aI-60
aI0
aI0
aI14
aI-60
aI1
aI-107
aI43
aI14
aI27
aI0
aI0
aI0
aI27
aI73
aI68
aI65
aI84
aI8
aI-103
aI99
aI-104
aI-3
aI-127
aI-31
aI-42
aI2
aI-122
aI-121
aI12
aI12
aI31
aI25
aI24
aI126
aI25
aI48
aI-4
aI9
aI0
aI0
aI70
aI-122
aI7
aI78
aI-69
aI70
aI17
aI-96
aI0
aI0
aI0
aI0
aI73
aI69
aI78
aI68
aI-82
aI66
aI96
aI-126
aI123
tp54
Rp55
ag1
(I6
I12
(lp56
I-119
aI80
aI78
aI71
aI13
aI10
aI26
aI10
aI0
aI0
aI0
aI13
aI73
aI72
aI68
aI82
aI0
aI0
aI0
aI12
aI0
aI0
aI0
aI6
aI1
aI3
aI0
aI0
aI0
aI-51
aI32
aI-19
aI-62
aI0
aI0
aI0
aI6
aI80
aI76
aI84
aI69
aI0
aI0
aI0
aI-1
aI-1
aI-1
aI-91
aI-39
aI-97
aI-35
aI0
aI0
aI0
aI9
aI112
aI72
aI89
aI115
aI0
aI0
aI14
aI-60
aI0
aI0
aI14
aI-60
aI1
aI-107
aI43
aI14
aI27
aI0
aI0
aI0
aI27
aI73
aI68
aI65
aI84
aI8
aI-103
aI99
aI-104
aI17
aI-64
aI112
aI-109
aI-127
aI-31
aI-47
aI2
aI-122
aI-113
aI12
aI12
aI-65
aI12
aI24
aI-2
aI4
aI0
aI0
aI58
aI112
aI6
aI-85
aI-24
aI93
aI-101
aI102
aI0
aI0
aI0
aI0
aI73
aI69
aI78
aI68
aI-82
aI66
aI96
aI-126
aI123
tp57
Rp58
ag1
(I6
I12
(lp59
I-119
aI80
aI78
aI71
aI13
aI10
aI26
aI10
aI0
aI0
aI0
aI13
aI73
aI72
aI68
aI82
aI0
aI0
aI0
aI12
aI0
aI0
aI0
aI6
aI1
aI3
aI0
aI0
aI0
aI-51
aI32
aI-19
aI-62
aI0
aI0
aI0
aI6
aI80
aI76
aI84
aI69
aI0
aI0
aI0
aI-1
aI-1
aI-1
aI-91
aI-39
aI-97
aI-35
aI0
aI0
aI0
aI9
aI112
aI72
aI89
aI115
aI0
aI0
aI14
aI-60
aI0
aI0
aI14
aI-60
aI1
aI-107
aI43
aI14
aI27
aI0
aI0
aI0
aI27
aI73
aI68
aI65
aI84
aI8
aI-103
aI99
aI-104
aI-3
aI-127
aI-31
aI38
aI3
aI-61
aI-93
aI5
aI12
aI31
aI25
aI24
aI126
aI25
aI48
aI-4
aI9
aI0
aI0
aI68
aI-93
aI7
aI78
aI-126
aI-65
aI-52
aI0
aI0
aI0
aI0
aI0
aI73
aI69
aI78
aI68
aI-82
aI66
aI96
aI-126
aI123
tp60
Rp61
ag1
(I6
I12
(lp62
I-119
aI80
aI78
aI71
aI13
aI10
aI26
aI10
aI0
aI0
aI0
aI13
aI73
aI72
aI68
aI82
aI0
aI0
aI0
aI12
aI0
aI0
aI0
aI6
aI1
aI3
aI0
aI0
aI0
aI-51
aI32
aI-19
aI-62
aI0
aI0
aI0
aI6
aI80
aI76
aI84
aI69
aI0
aI0
aI0
aI-1
aI-1
aI-1
aI-91
aI-39
aI-97
aI-35
aI0
aI0
aI0
aI9
aI112
aI72
aI89
aI115
aI0
aI0
aI14
aI-60
aI0
aI0
aI14
aI-60
aI1
aI-107
aI43
aI14
aI27
aI0
aI0
aI0
aI27
aI73
aI68
aI65
aI84
aI8
aI-103
aI99
aI-104
aI17
aI-64
aI112
aI107
aI1
aI-61
aI-93
aI5
aI12
aI31
aI25
aI24
aI126
aI25
aI48
aI-4
aI9
aI0
aI0
aI66
aI-98
aI7
aI76
aI-91
aI-63
aI-86
aI-46
aI0
aI0
aI0
aI0
aI73
aI69
aI78
aI68
aI-82
aI66
aI96
aI-126
aI123
tp63
Rp64
ag1
(I6
I12
(lp65
I-119
aI80
aI78
aI71
aI13
aI10
aI26
aI10
aI0
aI0
aI0
aI13
aI73
aI72
aI68
aI82
aI0
aI0
aI0
aI12
aI0
aI0
aI0
aI6
aI1
aI3
aI0
aI0
aI0
aI-51
aI32
aI-19
aI-62
aI0
aI0
aI0
aI6
aI80
aI76
aI84
aI69
aI0
aI0
aI0
aI-1
aI-1
aI-1
aI-91
aI-39
aI-97
aI-35
aI0
aI0
aI0
aI9
aI112
aI72
aI89
aI115
aI0
aI0
aI14
aI-60
aI0
aI0
aI14
aI-60
aI1
aI-107
aI43
aI14
aI27
aI0
aI0
aI0
aI27
aI73
aI68
aI65
aI84
aI8
aI-103
aI99
aI-104
aI17
aI-64
aI112
aI-109
aI-127
aI-31
aI33
aI3
aI-61
aI-89
aI5
aI12
aI-65
aI12
aI24
aI-2
aI4
aI0
aI0
aI56
aI-115
aI6
aI-85
aI15
aI-52
aI-114
aI-108
aI0
aI0
aI0
aI0
aI73
aI69
aI78
aI68
aI-82
aI66
aI96
aI-126
aI123
tp66
Rp67
ag1
(I6
I12
(lp68
I-119
aI80
aI78
aI71
aI13
aI10
aI26
aI10
aI0
aI0
aI0
aI13
aI73
aI72
aI68
aI82
aI0
aI0
aI0
aI12
aI0
aI0
aI0
aI6
aI1
aI3
aI0
aI0
aI0
aI-51
aI32
aI-19
aI-62
aI0
aI0
aI0
aI6
aI80
aI76
aI84
aI69
aI0
aI0
aI0
aI-1
aI-1
aI-1
aI-91
aI-39
aI-97
aI-35
aI0
aI0
aI0
aI9
aI112
aI72
aI89
aI115
aI0
aI0
aI14
aI-60
aI0
aI0
aI14
aI-60
aI1
aI-107
aI43
aI14
aI27
aI0
aI0
aI0
aI27
aI73
aI68
aI65
aI84
aI8
aI-103
aI99
aI-104
aI-3
aI-127
aI-31
aI38
aI3
aI-61
aI67
aI6
aI-122
aI79
aI11
aI24
aI126
aI25
aI48
aI-4
aI9
aI0
aI0
aI66
aI-64
aI7
aI78
aI-41
aI60
aI-101
aI16
aI0
aI0
aI0
aI0
aI73
aI69
aI78
aI68
aI-82
aI66
aI96
aI-126
aI123
tp69
Rp70
ag1
(I6
I12
(lp71
I-119
aI80
aI78
aI71
aI13
aI10
aI26
aI10
aI0
aI0
aI0
aI13
aI73
aI72
aI68
aI82
aI0
aI0
aI0
aI12
aI0
aI0
aI0
aI6
aI1
aI3
aI0
aI0
aI0
aI-51
aI32
aI-19
aI-62
aI0
aI0
aI0
aI6
aI80
aI76
aI84
aI69
aI0
aI0
aI0
aI-1
aI-1
aI-1
aI-91
aI-39
aI-97
aI-35
aI0
aI0
aI0
aI9
aI112
aI72
aI89
aI115
aI0
aI0
aI14
aI-60
aI0
aI0
aI14
aI-60
aI1
aI-107
aI43
aI14
aI27
aI0
aI0
aI0
aI27
aI73
aI68
aI65
aI84
aI8
aI-103
aI99
aI-104
aI17
aI-64
aI112
aI107
aI1
aI-61
aI67
aI6
aI-122
aI79
aI11
aI24
aI126
aI25
aI48
aI-4
aI9
aI0
aI0
aI64
aI-69
aI7
aI76
aI11
aI55
aI-101
aI-25
aI0
aI0
aI0
aI0
aI73
aI69
aI78
aI68
aI-82
aI66
aI96
aI-126
aI123
tp72
Rp73
ag1
(I6
I12
(lp74
I-119
aI80
aI78
aI71
aI13
aI10
aI26
aI10
aI0
aI0
aI0
aI13
aI73
aI72
aI68
aI82
aI0
aI0
aI0
aI12
aI0
aI0
aI0
aI6
aI1
aI3
aI0
aI0
aI0
aI-51
aI32
aI-19
aI-62
aI0
aI0
aI0
aI6
aI80
aI76
aI84
aI69
aI0
aI0
aI0
aI-1
aI-1
aI-1
aI-91
aI-39
aI-97
aI-35
aI0
aI0
aI0
aI9
aI112
aI72
aI89
aI115
aI0
aI0
aI14
aI-60
aI0
aI0
aI14
aI-60
aI1
aI-107
aI43
aI14
aI27
aI0
aI0
aI0
aI27
aI73
aI68
aI65
aI84
aI8
aI-103
aI99
aI-104
aI-3
aI-127
aI-31
aI-42
aI2
aI-122
aI-121
aI12
aI12
aI-97
aI22
aI48
aI-4
aI50
aI96
aI-8
aI19
aI0
aI0
aI74
aI-18
aI7
aI-17
aI1
aI61
aI-56
aI90
aI0
aI0
aI0
aI0
aI73
aI69
aI78
aI68
aI-82
aI66
aI96
aI-126
aI123
tp75
Rp76
ag1
(I6
I12
(lp77
I-119
aI80
aI78
aI71
aI13
aI10
aI26
aI10
aI0
aI0
aI0
aI13
aI73
aI72
aI68
aI82
aI0
aI0
aI0
aI12
aI0
aI0
aI0
aI6
aI1
aI3
aI0
aI0
aI0
aI-51
aI32
aI-19
aI-62
aI0
aI0
aI0
aI6
aI80
aI76
aI84
aI69
aI0
aI0
aI0
aI-1
aI-1
aI-1
aI-91
aI-39
aI-97
aI-35
aI0
aI0
aI0
aI9
aI112
aI72
aI89
aI115
aI0
aI0
aI14
aI-60
aI0
aI0
aI14
aI-60
aI1
aI-107
aI43
aI14
aI27
aI0
aI0
aI0
aI27
aI73
aI68
aI65
aI84
aI8
aI-103
aI99
aI-104
aI17
aI-64
aI112
aI-109
aI-127
aI-31
aI-47
aI2
aI-122
aI79
aI11
aI24
aI126
aI25
aI48
aI-4
aI9
aI0
aI0
aI62
aI-40
aI7
aI76
aI-100
aI-3
aI113
aI-95
aI0
aI0
aI0
aI0
aI73
aI69
aI78
aI68
aI-82
aI66
aI96
aI-126
aI123
tp78
Rp79
ag1
(I6
I12
(lp80
I-119
aI80
aI78
aI71
aI13
aI10
aI26
aI10
aI0
aI0
aI0
aI13
aI73
aI72
aI68
aI82
aI0
aI0
aI0
aI12
aI0
aI0
aI0
aI6
aI1
aI3
aI0
aI0
aI0
aI-51
aI32
aI-19
aI-62
aI0
aI0
aI0
aI6
aI80
aI76
aI84
aI69
aI0
aI0
aI0
aI-1
aI-1
aI-1
aI-91
aI-39
aI-97
aI-35
aI0
aI0
aI0
aI9
aI112
aI72
aI89
aI115
aI0
aI0
aI14
aI-60
aI0
aI0
aI14
aI-60
aI1
aI-107
aI43
aI14
aI27
aI0
aI0
aI0
aI27
aI73
aI68
aI65
aI84
aI8
aI-103
aI99
aI-104
aI-3
aI-127
aI-31
aI38
aI3
aI-61
aI-93
aI5
aI12
aI-97
aI22
aI48
aI-4
aI50
aI96
aI-8
aI19
aI0
aI0
aI73
aI11
aI7
aI-17
aI17
aI-41
aI-28
aI-33
aI0
aI0
aI0
aI0
aI73
aI69
aI78
aI68
aI-82
aI66
aI96
aI-126
aI123
tp81
Rp82
ag1
(I6
I12
(lp83
I-119
aI80
aI78
aI71
aI13
aI10
aI26
aI10
aI0
aI0
aI0
aI13
aI73
aI72
aI68
aI82
aI0
aI0
aI0
aI12
aI0
aI0
aI0
aI6
aI1
aI3
aI0
aI0
aI0
aI-51
aI32
aI-19
aI-62
aI0
aI0
aI0
aI6
aI80
aI76
aI84
aI69
aI0
aI0
aI0
aI-1
aI-1
aI-1
aI-91
aI-39
aI-97
aI-35
aI0
aI0
aI0
aI9
aI112
aI72
aI89
aI115
aI0
aI0
aI14
aI-60
aI0
aI0
aI14
aI-60
aI1
aI-107
aI43
aI14
aI27
aI0
aI0
aI0
aI27
aI73
aI68
aI65
aI84
aI8
aI-103
aI99
aI-104
aI17
aI-64
aI112
aI107
aI1
aI-61
aI-93
aI5
aI12
aI-97
aI22
aI48
aI-4
aI50
aI96
aI-8
aI19
aI0
aI0
aI71
aI6
aI7
aI-19
aI-41
aI118
aI79
aI114
aI0
aI0
aI0
aI0
aI73
aI69
aI78
aI68
aI-82
aI66
aI96
aI-126
aI123
tp84
Rp85
ag1
(I6
I12
(lp86
I-119
aI80
aI78
aI71
aI13
aI10
aI26
aI10
aI0
aI0
aI0
aI13
aI73
aI72
aI68
aI82
aI0
aI0
aI0
aI12
aI0
aI0
aI0
aI6
aI1
aI3
aI0
aI0
aI0
aI-51
aI32
aI-19
aI-62
aI0
aI0
aI0
aI6
aI80
aI76
aI84
aI69
aI0
aI0
aI0
aI-1
aI-1
aI-1
aI-91
aI-39
aI-97
aI-35
aI0
aI0
aI0
aI9
aI112
aI72
aI89
aI115
aI0
aI0
aI14
aI-60
aI0
aI0
aI14
aI-60
aI1
aI-107
aI43
aI14
aI27
aI0
aI0
aI0
aI27
aI73
aI68
aI65
aI84
aI8
aI-103
aI99
aI-104
aI-3
aI-127
aI-31
aI-42
aI2
aI-122
aI71
aI11
aI24
aI62
aI45
aI96
aI-8
aI101
aI-64
aI-16
aI39
aI0
aI0
aI81
aI57
aI8
aI-112
aI18
aI67
aI111
aI49
aI0
aI0
aI0
aI0
aI73
aI69
aI78
aI68
aI-82
aI66
aI96
aI-126
aI123
tp87
Rp88
ag1
(I6
I12
(lp89
I-119
aI80
aI78
aI71
aI13
aI10
aI26
aI10
aI0
aI0
aI0
aI13
aI73
aI72
aI68
aI82
aI0
aI0
aI0
aI12
aI0
aI0
aI0
aI6
aI1
aI3
aI0
aI0
aI0
aI-51
aI32
aI-19
aI-62
aI0
aI0
aI0
aI6
aI80
aI76
aI84
aI69
aI0
aI0
aI0
aI-1
aI-1
aI-1
aI-91
aI-39
aI-97
aI-35
aI0
aI0
aI0
aI9
aI112
aI72
aI89
aI115
aI0
aI0
aI14
aI-60
aI0
aI0
aI14
aI-60
aI1
aI-107
aI43
aI14
aI27
aI0
aI0
aI0
aI27
aI73
aI68
aI65
aI84
aI8
aI-103
aI99
aI-104
aI-3
aI-127
aI-31
aI38
aI3
aI-61
aI67
aI6
aI-122
aI-113
aI12
aI12
aI63
aI39
aI48
aI-4
aI9
aI0
aI0
aI63
aI-45
aI7
aI12
aI25
aI-128
aI98
aI-88
aI0
aI0
aI0
aI0
aI73
aI69
aI78
aI68
aI-82
aI66
aI96
aI-126
aI123
tp90
Rp91
a.