(lp0
csage.matrix.matrix_mod2_dense
unpickle_matrix_mod2_dense_v1
p1
(I12
I63
(lp2
I-119
aI80
aI78
aI71
aI13
aI10
aI26
aI10
aI0
aI0
aI0
aI13
aI73
aI72
aI68
aI82
aI0
aI0
aI0
aI63
aI0
aI0
aI0
aI12
aI1
aI3
aI0
aI0
aI0
aI-17
aI127
aI-9
aI-97
aI0
aI0
aI0
aI6
aI80
aI76
aI84
aI69
aI0
aI0
aI0
aI-1
aI-1
aI-1
aI-91
aI-39
aI-97
aI-35
aI0
aI0
aI0
aI9
aI112
aI72
aI89
aI115
aI0
aI0
aI14
aI-60
aI0
aI0
aI14
aI-60
aI1
aI-107
aI43
aI14
aI27
aI0
aI0
aI0
aI91
aI73
aI68
aI65
aI84
aI8
aI-103
aI99
aI-8
aI-59
aI-74
aI46
aI81
aI100
aI83
aI-39
aI7
aI-122
aI10
aI40
aI-117
aI97
aI79
aI45
aI115
aI-72
aI65
aI87
aI-92
aI21
aI-61
aI-19
aI-29
aI23
aI76
aI-117
aI57
aI-106
aI78
aI98
aI120
aI33
aI-75
aI-77
aI37
aI-24
aI-28
aI-19
aI99
aI12
aI95
aI120
aI99
aI14
aI105
aI-90
aI-68
aI125
aI-60
aI16
aI10
aI1
aI33
aI12
aI51
aI33
aI96
aI6
aI-61
aI67
aI8
aI120
aI-64
aI-16
aI-113
aI17
aI12
aI25
aI24
aI-2
aI-1
aI99
aI96
aI4
aI98
aI32
aI-29
aI63
aI-104
aI98
aI0
aI0
aI-123
aI6
aI51
aI20
aI-77
aI-89
aI66
aI24
aI0
aI0
aI0
aI0
aI73
aI69
aI78
aI68
aI-82
aI66
aI96
aI-126
aI187
tp3
Rp4
ag1
(I12
I63
(lp5
I-119
aI80
aI78
aI71
aI13
aI10
aI26
aI10
aI0
aI0
aI0
aI13
aI73
aI72
aI68
aI82
aI0
aI0
aI0
aI63
aI0
aI0
aI0
aI12
aI1
aI3
aI0
aI0
aI0
aI-17
aI127
aI-9
aI-97
aI0
aI0
aI0
aI6
aI80
aI76
aI84
aI69
aI0
aI0
aI0
aI-1
aI-1
aI-1
aI-91
aI-39
aI-97
aI-35
aI0
aI0
aI0
aI9
aI112
aI72
aI89
aI115
aI0
aI0
aI14
aI-60
aI0
aI0
aI14
aI-60
aI1
aI-107
aI43
aI14
aI27
aI0
aI0
aI0
aI91
aI73
aI68
aI65
aI84
aI8
aI-103
aI99
aI-8
aI-59
aI-74
aI46
aI81
aI100
aI83
aI-39
aI7
aI-122
aI10
aI40
aI-117
aI97
aI79
aI45
aI115
aI-72
aI65
aI87
aI-92
aI21
aI-61
aI-19
aI-29
aI23
aI76
aI-117
aI57
aI-106
aI78
aI98
aI120
aI33
aI-75
aI-77
aI37
aI-24
aI-28
aI-19
aI99
aI12
aI95
aI120
aI99
aI14
aI105
aI-90
aI-68
aI125
aI-60
aI16
aI10
aI1
aI65
aI12
aI51
aI33
aI96
aI6
aI-61
aI67
aI8
aI120
aI-64
aI-16
aI-113
aI17
aI12
aI25
aI24
aI-2
aI-1
aI99
aI96
aI4
aI98
aI32
aI-29
aI63
aI-104
aI98
aI0
aI0
aI-124
aI-86
aI51
aI18
aI-17
aI-82
aI113
aI-122
aI0
aI0
aI0
aI0
aI73
aI69
aI78
aI68
aI-82
aI66
aI96
aI-126
aI187
tp6
Rp7
ag1
(I12
I63
(lp8
I-119
aI80
aI78
aI71
aI13
aI10
aI26
aI10
aI0
aI0
aI0
aI13
aI73
aI72
aI68
aI82
aI0
aI0
aI0
aI63
aI0
aI0
aI0
aI12
aI1
aI3
aI0
aI0
aI0
aI-17
aI127
aI-9
aI-97
aI0
aI0
aI0
aI6
aI80
aI76
aI84
aI69
aI0
aI0
aI0
aI-1
aI-1
aI-1
aI-91
aI-39
aI-97
aI-35
aI0
aI0
aI0
aI9
aI112
aI72
aI89
aI115
aI0
aI0
aI14
aI-60
aI0
aI0
aI14
aI-60
aI1
aI-107
aI43
aI14
aI27
aI0
aI0
aI0
aI91
aI73
aI68
aI65
aI84
aI8
aI-103
aI99
aI-8
aI-59
aI-74
aI46
aI81
aI100
aI83
aI-39
aI7
aI-122
aI10
aI40
aI-117
aI97
aI79
aI45
aI115
aI-72
aI65
aI87
aI-92
aI21
aI-61
aI-19
aI-29
aI23
aI76
aI-117
aI57
aI-106
aI78
aI98
aI120
aI33
aI-75
aI-77
aI37
aI-24
aI-28
aI-19
aI99
aI12
aI95
aI120
aI99
aI14
aI105
aI-90
aI-68
aI125
aI-60
aI16
aI10
aI1
aI17
aI12
aI51
aI33
aI96
aI10
aI-61
aI67
aI8
aI120
aI-64
aI-16
aI-113
aI17
aI12
aI25
aI24
aI-2
aI-1
aI99
aI96
aI4
aI98
aI32
aI-29
aI63
aI-104
aI98
aI0
aI0
aI-123
aI42
aI51
aI20
aI21
aI-104
aI112
aI10
aI0
aI0
aI0
aI0
aI73
aI69
aI78
aI68
aI-82
aI66
aI96
aI-126
aI187
tp9
Rp10
ag1
(I12
I63
(lp11
I-119
aI80
aI78
aI71
aI13
aI10
aI26
aI10
aI0
aI0
aI0
aI13
aI73
aI72
aI68
aI82
aI0
aI0
aI0
aI63
aI0
aI0
aI0
aI12
aI1
aI3
aI0
aI0
aI0
aI-17
aI127
aI-9
aI-97
aI0
aI0
aI0
aI6
aI80
aI76
aI84
aI69
aI0
aI0
aI0
aI-1
aI-1
aI-1
aI-91
aI-39
aI-97
aI-35
aI0
aI0
aI0
aI9
aI112
aI72
aI89
aI115
aI0
aI0
aI14
aI-60
aI0
aI0
aI14
aI-60
aI1
aI-107
aI43
aI14
aI27
aI0
aI0
aI0
aI91
aI73
aI68
aI65
aI84
aI8
aI-103
aI99
aI-8
aI-59
aI-74
aI46
aI81
aI100
aI83
aI-39
aI7
aI-122
aI10
aI40
aI-117
aI97
aI79
aI45
aI115
aI-72
aI65
aI87
aI-92
aI21
aI-61
aI-19
aI-29
aI23
aI76
aI-117
aI57
aI-106
aI78
aI98
aI120
aI33
aI-75
aI-77
aI37
aI-24
aI-28
aI-19
aI99
aI12
aI95
aI120
aI99
aI14
aI105
aI-90
aI-68
aI125
aI-60
aI16
aI10
aI1
aI17
aI12
aI51
aI33
aI96
aI18
aI-61
aI67
aI8
aI120
aI-64
aI-16
aI-113
aI17
aI12
aI25
aI24
aI-2
aI-1
aI99
aI96
aI4
aI98
aI32
aI-29
aI63
aI-104
aI98
aI0
aI0
aI-124
aI-32
aI51
aI18
aI-16
aI107
aI-23
aI107
aI0
aI0
aI0
aI0
aI73
aI69
aI78
aI68
aI-82
aI66
aI96
aI-126
aI187
tp12
Rp13
ag1
(I12
I63
(lp14
I-119
aI80
aI78
aI71
aI13
aI10
aI26
aI10
aI0
aI0
aI0
aI13
aI73
aI72
aI68
aI82
aI0
aI0
aI0
aI63
aI0
aI0
aI0
aI12
aI1
aI3
aI0
aI0
aI0
aI-17
aI127
aI-9
aI-97
aI0
aI0
aI0
aI6
aI80
aI76
aI84
aI69
aI0
aI0
aI0
aI-1
aI-1
aI-1
aI-91
aI-39
aI-97
aI-35
aI0
aI0
aI0
aI9
aI112
aI72
aI89
aI115
aI0
aI0
aI14
aI-60
aI0
aI0
aI14
aI-60
aI1
aI-107
aI43
aI14
aI27
aI0
aI0
aI0
aI91
aI73
aI68
aI65
aI84
aI8
aI-103
aI99
aI-8
aI-59
aI-74
aI46
aI81
aI100
aI83
aI-39
aI7
aI-122
aI10
aI40
aI-117
aI97
aI79
aI45
aI115
aI-72
aI65
aI87
aI-92
aI21
aI-61
aI-19
aI-29
aI23
aI76
aI-117
aI57
aI-106
aI78
aI98
aI120
aI33
aI-75
aI-77
aI37
aI-24
aI-28
aI-19
aI99
aI12
aI95
aI120
aI99
aI14
aI105
aI-90
aI-68
aI125
aI-60
aI16
aI10
aI1
aI65
aI12
aI51
aI33
aI96
aI10
aI-61
aI67
aI8
aI120
aI-64
aI-16
aI-113
aI17
aI12
aI25
aI24
aI-2
aI-1
aI99
aI96
aI4
aI98
aI32
aI-29
aI63
aI-104
aI98
aI0
aI0
aI-124
aI22
aI51
aI14
aI-50
aI89
aI-115
aI-50
aI0
aI0
aI0
aI0
aI73
aI69
aI78
aI68
aI-82
aI66
aI96
aI-126
aI187
tp15
Rp16
ag1
(I12
I63
(lp17
I-119
aI80
aI78
aI71
aI13
aI10
aI26
aI10
aI0
aI0
aI0
aI13
aI73
aI72
aI68
aI82
aI0
aI0
aI0
aI63
aI0
aI0
aI0
aI12
aI1
aI3
aI0
aI0
aI0
aI-17
aI127
aI-9
aI-97
aI0
aI0
aI0
aI6
aI80
aI76
aI84
aI69
aI0
aI0
aI0
aI-1
aI-1
aI-1
aI-91
aI-39
aI-97
aI-35
aI0
aI0
aI0
aI9
aI112
aI72
aI89
aI115
aI0
aI0
aI14
aI-60
aI0
aI0
aI14
aI-60
aI1
aI-107
aI43
aI14
aI27
aI0
aI0
aI0
aI91
aI73
aI68
aI65
aI84
aI8
aI-103
aI99
aI-8
aI-59
aI-74
aI46
aI81
aI100
aI83
aI-39
aI7
aI-122
aI10
aI40
aI-117
aI97
aI79
aI45
aI115
aI-72
aI65
aI87
aI-92
aI21
aI-61
aI-19
aI-29
aI23
aI76
aI-117
aI57
aI-106
aI78
aI98
aI120
aI33
aI-75
aI-77
aI37
aI-24
aI-28
aI-19
aI99
aI12
aI95
aI120
aI99
aI14
aI105
aI-90
aI-68
aI125
aI-60
aI16
aI10
aI1
aI33
aI12
aI51
aI33
aI96
aI18
aI-61
aI67
aI8
aI120
aI-64
aI-16
aI-113
aI17
aI12
aI25
aI24
aI-2
aI-1
aI99
aI96
aI4
aI98
aI32
aI-29
aI63
aI-104
aI98
aI0
aI0
aI-124
aI40
aI51
aI14
aI21
aI12
aI88
aI57
aI0
aI0
aI0
aI0
aI73
aI69
aI78
aI68
aI-82
aI66
aI96
aI-126
aI187
tp18
Rp19
ag1
(I12
I63
(lp20
I-119
aI80
aI78
aI71
aI13
aI10
aI26
aI10
aI0
aI0
aI0
aI13
aI73
aI72
aI68
aI82
aI0
aI0
aI0
aI63
aI0
aI0
aI0
aI12
aI1
aI3
aI0
aI0
aI0
aI-17
aI127
aI-9
aI-97
aI0
aI0
aI0
aI6
aI80
aI76
aI84
aI69
aI0
aI0
aI0
aI-1
aI-1
aI-1
aI-91
aI-39
aI-97
aI-35
aI0
aI0
aI0
aI9
aI112
aI72
aI89
aI115
aI0
aI0
aI14
aI-60
aI0
aI0
aI14
aI-60
aI1
aI-107
aI43
aI14
aI27
aI0
aI0
aI0
aI91
aI73
aI68
aI65
aI84
aI8
aI-103
aI99
aI-8
aI-59
aI-74
aI46
aI81
aI100
aI83
aI-39
aI7
aI-122
aI10
aI40
aI-117
aI97
aI79
aI45
aI115
aI-72
aI65
aI87
aI-92
aI21
aI-61
aI-19
aI-29
aI23
aI76
aI-117
aI57
aI-106
aI78
aI98
aI120
aI33
aI-75
aI-77
aI37
aI-24
aI-28
aI-19
aI99
aI12
aI95
aI120
aI99
aI14
aI105
aI-90
aI-68
aI125
aI-60
aI16
aI10
aI1
aI62
aI12
aI51
aI33
aI96
aI6
aI-61
aI67
aI8
aI120
aI-64
aI-16
aI-113
aI17
aI12
aI25
aI24
aI-2
aI-1
aI99
aI96
aI4
aI98
aI32
aI-29
aI63
aI-104
aI98
aI0
aI0
aI-125
aI-106
aI51
aI12
aI93
aI-23
aI28
aI-78
aI0
aI0
aI0
aI0
aI73
aI69
aI78
aI68
aI-82
aI66
aI96
aI-126
aI187
tp21
Rp22
ag1
(I12
I63
(lp23
I-119
aI80
aI78
aI71
aI13
aI10
aI26
aI10
aI0
aI0
aI0
aI13
aI73
aI72
aI68
aI82
aI0
aI0
aI0
aI63
aI0
aI0
aI0
aI12
aI1
aI3
aI0
aI0
aI0
aI-17
aI127
aI-9
aI-97
aI0
aI0
aI0
aI6
aI80
aI76
aI84
aI69
aI0
aI0
aI0
aI-1
aI-1
aI-1
aI-91
aI-39
aI-97
aI-35
aI0
aI0
aI0
aI9
aI112
aI72
aI89
aI115
aI0
aI0
aI14
aI-60
aI0
aI0
aI14
aI-60
aI1
aI-107
aI43
aI14
aI27
aI0
aI0
aI0
aI91
aI73
aI68
aI65
aI84
aI8
aI-103
aI99
aI-8
aI-59
aI-74
aI46
aI81
aI100
aI83
aI-39
aI7
aI-122
aI10
aI40
aI-117
aI97
aI79
aI45
aI115
aI-72
aI65
aI87
aI-92
aI21
aI-61
aI-19
aI-29
aI23
aI76
aI-117
aI57
aI-106
aI78
aI98
aI120
aI33
aI-75
aI-77
aI37
aI-24
aI-28
aI-19
aI99
aI12
aI95
aI120
aI99
aI14
aI105
aI-90
aI-68
aI125
aI-60
aI16
aI10
aI1
aI94
aI12
aI51
aI33
aI96
aI6
aI-61
aI67
aI8
aI120
aI-64
aI-16
aI-113
aI17
aI12
aI25
aI24
aI-2
aI-1
aI99
aI96
aI4
aI98
aI32
aI-29
aI63
aI-104
aI98
aI0
aI0
aI-125
aI58
aI51
aI10
aI-71
aI92
aI72
aI73
aI0
aI0
aI0
aI0
aI73
aI69
aI78
aI68
aI-82
aI66
aI96
aI-126
aI187
tp24
Rp25
ag1
(I12
I63
(lp26
I-119
aI80
aI78
aI71
aI13
aI10
aI26
aI10
aI0
aI0
aI0
aI13
aI73
aI72
aI68
aI82
aI0
aI0
aI0
aI63
aI0
aI0
aI0
aI12
aI1
aI3
aI0
aI0
aI0
aI-17
aI127
aI-9
aI-97
aI0
aI0
aI0
aI6
aI80
aI76
aI84
aI69
aI0
aI0
aI0
aI-1
aI-1
aI-1
aI-91
aI-39
aI-97
aI-35
aI0
aI0
aI0
aI9
aI112
aI72
aI89
aI115
aI0
aI0
aI14
aI-60
aI0
aI0
aI14
aI-60
aI1
aI-107
aI43
aI14
aI27
aI0
aI0
aI0
aI91
aI73
aI68
aI65
aI84
aI8
aI-103
aI99
aI-8
aI-59
aI-74
aI46
aI81
aI100
aI83
aI-39
aI7
aI-122
aI10
aI40
aI-117
aI97
aI79
aI45
aI115
aI-72
aI65
aI87
aI-92
aI21
aI-61
aI-19
aI-29
aI23
aI76
aI-117
aI57
aI-106
aI78
aI98
aI120
aI33
aI-75
aI-77
aI37
aI-24
aI-28
aI-19
aI99
aI12
aI95
aI120
aI99
aI14
aI105
aI-90
aI-68
aI125
aI-60
aI16
aI10
aI1
aI62
aI12
aI51
aI33
aI96
aI10
aI-61
aI67
aI8
aI120
aI-64
aI-16
aI-113
aI17
aI12
aI25
aI24
aI-2
aI-1
aI99
aI96
aI4
aI98
aI32
aI-29
aI63
aI-104
aI98
aI0
aI0
aI-125
aI2
aI51
aI8
aI89
aI44
aI111
aI-12
aI0
aI0
aI0
aI0
aI73
aI69
aI78
aI68
aI-82
aI66
aI96
aI-126
aI187
tp27
Rp28
ag1
(I12
I63
(lp29
I-119
aI80
aI78
aI71
aI13
aI10
aI26
aI10
aI0
aI0
aI0
aI13
aI73
aI72
aI68
aI82
aI0
aI0
aI0
aI63
aI0
aI0
aI0
aI12
aI1
aI3
aI0
aI0
aI0
aI-17
aI127
aI-9
aI-97
aI0
aI0
aI0
aI6
aI80
aI76
aI84
aI69
aI0
aI0
aI0
aI-1
aI-1
aI-1
aI-91
aI-39
aI-97
aI-35
aI0
aI0
aI0
aI9
aI112
aI72
aI89
aI115
aI0
aI0
aI14
aI-60
aI0
aI0
aI14
aI-60
aI1
aI-107
aI43
aI14
aI27
aI0
aI0
aI0
aI91
aI73
aI68
aI65
aI84
aI8
aI-103
aI99
aI-8
aI-59
aI-74
aI46
aI81
aI100
aI83
aI-39
aI7
aI-122
aI10
aI40
aI-117
aI97
aI79
aI45
aI115
aI-72
aI65
aI87
aI-92
aI21
aI-61
aI-19
aI-29
aI23
aI76
aI-117
aI57
aI-106
aI78
aI98
aI120
aI33
aI-75
aI-77
aI37
aI-24
aI-28
aI-19
aI99
aI12
aI95
aI120
aI99
aI14
aI105
aI-90
aI-68
aI125
aI-60
aI16
aI10
aI1
aI94
aI12
aI51
aI33
aI96
aI18
aI-61
aI67
aI8
aI120
aI-64
aI-16
aI-113
aI17
aI12
aI25
aI24
aI-2
aI-1
aI99
aI96
aI4
aI98
aI32
aI-29
aI63
aI-104
aI98
aI0
aI0
aI-126
aI92
aI51
aI4
aI123
aI-92
aI90
aI109
aI0
aI0
aI0
aI0
aI73
aI69
aI78
aI68
aI-82
aI66
aI96
aI-126
aI187
tp30
Rp31
ag1
(I12
I63
(lp32
I-119
aI80
aI78
aI71
aI13
aI10
aI26
aI10
aI0
aI0
aI0
aI13
aI73
aI72
aI68
aI82
aI0
aI0
aI0
aI63
aI0
aI0
aI0
aI12
aI1
aI3
aI0
aI0
aI0
aI-17
aI127
aI-9
aI-97
aI0
aI0
aI0
aI6
aI80
aI76
aI84
aI69
aI0
aI0
aI0
aI-1
aI-1
aI-1
aI-91
aI-39
aI-97
aI-35
aI0
aI0
aI0
aI9
aI112
aI72
aI89
aI115
aI0
aI0
aI14
aI-60
aI0
aI0
aI14
aI-60
aI1
aI-107
aI43
aI14
aI27
aI0
aI0
aI0
aI91
aI73
aI68
aI65
aI84
aI8
aI-103
aI99
aI-8
aI-59
aI-74
aI46
aI81
aI100
aI83
aI-39
aI7
aI-122
aI10
aI40
aI-117
aI97
aI79
aI45
aI115
aI-72
aI65
aI87
aI-92
aI21
aI-61
aI-19
aI-29
aI23
aI76
aI-117
aI57
aI-106
aI78
aI98
aI120
aI33
aI-75
aI-77
aI37
aI-24
aI-28
aI-19
aI99
aI12
aI95
aI120
aI99
aI14
aI105
aI-90
aI-68
aI125
aI-60
aI16
aI10
aI1
aI110
aI12
aI51
aI33
aI96
aI10
aI-61
aI67
aI8
aI120
aI-64
aI-16
aI-113
aI17
aI12
aI25
aI24
aI-2
aI-1
aI99
aI96
aI4
aI98
aI32
aI-29
aI63
aI-104
aI98
aI0
aI0
aI-127
aI-18
aI51
aI2
aI0
aI102
aI24
aI-118
aI0
aI0
aI0
aI0
aI73
aI69
aI78
aI68
aI-82
aI66
aI96
aI-126
aI187
tp33
Rp34
ag1
(I12
I63
(lp35
I-119
aI80
aI78
aI71
aI13
aI10
aI26
aI10
aI0
aI0
aI0
aI13
aI73
aI72
aI68
aI82
aI0
aI0
aI0
aI63
aI0
aI0
aI0
aI12
aI1
aI3
aI0
aI0
aI0
aI-17
aI127
aI-9
aI-97
aI0
aI0
aI0
aI6
aI80
aI76
aI84
aI69
aI0
aI0
aI0
aI-1
aI-1
aI-1
aI-91
aI-39
aI-97
aI-35
aI0
aI0
aI0
aI9
aI112
aI72
aI89
aI115
aI0
aI0
aI14
aI-60
aI0
aI0
aI14
aI-60
aI1
aI-107
aI43
aI14
aI27
aI0
aI0
aI0
aI91
aI73
aI68
aI65
aI84
aI8
aI-103
aI99
aI-8
aI-59
aI-74
aI46
aI81
aI100
aI83
aI-39
aI7
aI-122
aI10
aI40
aI-117
aI97
aI79
aI45
aI115
aI-72
aI65
aI87
aI-92
aI21
aI-61
aI-19
aI-29
aI23
aI76
aI-117
aI57
aI-106
aI78
aI98
aI120
aI33
aI-75
aI-77
aI37
aI-24
aI-28
aI-19
aI99
aI12
aI95
aI120
aI99
aI14
aI105
aI-90
aI-68
aI125
aI-60
aI16
aI10
aI1
aI110
aI12
aI51
aI33
aI96
aI18
aI-61
aI67
aI8
aI120
aI-64
aI-16
aI-113
aI17
aI12
aI25
aI24
aI-2
aI-1
aI99
aI96
aI4
aI98
aI32
aI-29
aI63
aI-104
aI98
aI0
aI0
aI-127
aI-92
aI51
aI0
aI-69
aI113
aI57
aI23
aI0
aI0
aI0
aI0
aI73
aI69
aI78
aI68
aI-82
aI66
aI96
aI-126
aI187
tp36
Rp37
ag1
(I12
I63
(lp38
I-119
aI80
aI78
aI71
aI13
aI10
aI26
aI10
aI0
aI0
aI0
aI13
aI73
aI72
aI68
aI82
aI0
aI0
aI0
aI63
aI0
aI0
aI0
aI12
aI1
aI3
aI0
aI0
aI0
aI-17
aI127
aI-9
aI-97
aI0
aI0
aI0
aI6
aI80
aI76
aI84
aI69
aI0
aI0
aI0
aI-1
aI-1
aI-1
aI-91
aI-39
aI-97
aI-35
aI0
aI0
aI0
aI9
aI112
aI72
aI89
aI115
aI0
aI0
aI14
aI-60
aI0
aI0
aI14
aI-60
aI1
aI-107
aI43
aI14
aI27
aI0
aI0
aI0
aI91
aI73
aI68
aI65
aI84
aI8
aI-103
aI99
aI-8
aI-59
aI-74
aI46
aI81
aI100
aI83
aI-39
aI7
aI-122
aI10
aI40
aI-117
aI97
aI79
aI45
aI115
aI-72
aI65
aI87
aI-92
aI21
aI-61
aI-19
aI-29
aI23
aI76
aI-117
aI57
aI-106
aI78
aI98
aI120
aI33
aI-75
aI-77
aI37
aI-24
aI-28
aI-19
aI99
aI12
aI95
aI120
aI99
aI14
aI105
aI-90
aI-68
aI125
aI-60
aI16
aI10
aI1
aI17
aI12
aI51
aI33
aI-96
aI-121
aI-31
aI33
aI4
aI60
aI96
aI-8
aI-57
aI8
aI-122
aI12
aI12
aI-1
aI-1
aI49
aI48
aI2
aI49
aI-112
aI-15
aI31
aI76
aI49
aI0
aI0
aI-124
aI2
aI51
aI12
aI25
aI-31
aI85
aI-88
aI0
aI0
aI0
aI0
aI73
aI69
aI78
aI68
aI-82
aI66
aI96
aI-126
aI187
tp39
Rp40
ag1
(I12
I63
(lp41
I-119
aI80
aI78
aI71
aI13
aI10
aI26
aI10
aI0
aI0
aI0
aI13
aI73
aI72
aI68
aI82
aI0
aI0
aI0
aI63
aI0
aI0
aI0
aI12
aI1
aI3
aI0
aI0
aI0
aI-17
aI127
aI-9
aI-97
aI0
aI0
aI0
aI6
aI80
aI76
aI84
aI69
aI0
aI0
aI0
aI-1
aI-1
aI-1
aI-91
aI-39
aI-97
aI-35
aI0
aI0
aI0
aI9
aI112
aI72
aI89
aI115
aI0
aI0
aI14
aI-60
aI0
aI0
aI14
aI-60
aI1
aI-107
aI43
aI14
aI27
aI0
aI0
aI0
aI91
aI73
aI68
aI65
aI84
aI8
aI-103
aI99
aI-8
aI-59
aI-74
aI46
aI81
aI100
aI83
aI-39
aI7
aI-122
aI10
aI40
aI-117
aI97
aI79
aI45
aI115
aI-72
aI65
aI87
aI-92
aI21
aI-61
aI-19
aI-29
aI23
aI76
aI-117
aI57
aI-106
aI78
aI98
aI120
aI33
aI-75
aI-77
aI37
aI-24
aI-28
aI-19
aI99
aI12
aI95
aI120
aI99
aI14
aI105
aI-90
aI-68
aI125
aI-60
aI16
aI10
aI1
aI17
aI12
aI51
aI33
aI-96
aI-117
aI-31
aI33
aI4
aI60
aI96
aI-8
aI-57
aI8
aI-122
aI12
aI12
aI-1
aI-1
aI49
aI48
aI2
aI49
aI-112
aI-15
aI31
aI76
aI49
aI0
aI0
aI-125
aI-72
aI51
aI10
aI92
aI46
aI20
aI-111
aI0
aI0
aI0
aI0
aI73
aI69
aI78
aI68
aI-82
aI66
aI96
aI-126
aI187
tp42
Rp43
ag1
(I12
I63
(lp44
I-119
aI80
aI78
aI71
aI13
aI10
aI26
aI10
aI0
aI0
aI0
aI13
aI73
aI72
aI68
aI82
aI0
aI0
aI0
aI63
aI0
aI0
aI0
aI12
aI1
aI3
aI0
aI0
aI0
aI-17
aI127
aI-9
aI-97
aI0
aI0
aI0
aI6
aI80
aI76
aI84
aI69
aI0
aI0
aI0
aI-1
aI-1
aI-1
aI-91
aI-39
aI-97
aI-35
aI0
aI0
aI0
aI9
aI112
aI72
aI89
aI115
aI0
aI0
aI14
aI-60
aI0
aI0
aI14
aI-60
aI1
aI-107
aI43
aI14
aI27
aI0
aI0
aI0
aI91
aI73
aI68
aI65
aI84
aI8
aI-103
aI99
aI-8
aI-59
aI-74
aI46
aI81
aI100
aI83
aI-39
aI7
aI-122
aI10
aI40
aI-117
aI97
aI79
aI45
aI115
aI-72
aI65
aI87
aI-92
aI21
aI-61
aI-19
aI-29
aI23
aI76
aI-117
aI57
aI-106
aI78
aI98
aI120
aI33
aI-75
aI-77
aI37
aI-24
aI-28
aI-19
aI99
aI12
aI95
aI120
aI99
aI14
aI105
aI-90
aI-68
aI125
aI-60
aI16
aI10
aI1
aI33
aI12
aI51
aI33
aI-96
aI-121
aI-31
aI33
aI4
aI60
aI96
aI-8
aI-57
aI8
aI-122
aI12
aI12
aI-1
aI-1
aI49
aI48
aI2
aI49
aI-112
aI-15
aI31
aI76
aI49
aI0
aI0
aI-125
aI74
aI51
aI8
aI-109
aI8
aI95
aI-107
aI0
aI0
aI0
aI0
aI73
aI69
aI78
aI68
aI-82
aI66
aI96
aI-126
aI187
tp45
Rp46
ag1
(I12
I63
(lp47
I-119
aI80
aI78
aI71
aI13
aI10
aI26
aI10
aI0
aI0
aI0
aI13
aI73
aI72
aI68
aI82
aI0
aI0
aI0
aI63
aI0
aI0
aI0
aI12
aI1
aI3
aI0
aI0
aI0
aI-17
aI127
aI-9
aI-97
aI0
aI0
aI0
aI6
aI80
aI76
aI84
aI69
aI0
aI0
aI0
aI-1
aI-1
aI-1
aI-91
aI-39
aI-97
aI-35
aI0
aI0
aI0
aI9
aI112
aI72
aI89
aI115
aI0
aI0
aI14
aI-60
aI0
aI0
aI14
aI-60
aI1
aI-107
aI43
aI14
aI27
aI0
aI0
aI0
aI91
aI73
aI68
aI65
aI84
aI8
aI-103
aI99
aI-8
aI-59
aI-74
aI46
aI81
aI100
aI83
aI-39
aI7
aI-122
aI10
aI40
aI-117
aI97
aI79
aI45
aI115
aI-72
aI65
aI87
aI-92
aI21
aI-61
aI-19
aI-29
aI23
aI76
aI-117
aI57
aI-106
aI78
aI98
aI120
aI33
aI-75
aI-77
aI37
aI-24
aI-28
aI-19
aI99
aI12
aI95
aI120
aI99
aI14
aI105
aI-90
aI-68
aI125
aI-60
aI16
aI10
aI1
aI65
aI12
aI51
aI33
aI-96
aI-117
aI-31
aI33
aI4
aI60
aI96
aI-8
aI-57
aI8
aI-122
aI12
aI12
aI-1
aI-1
aI49
aI48
aI2
aI49
aI-112
aI-15
aI31
aI76
aI49
aI0
aI0
aI-126
aI-92
aI51
aI4
aI-91
aI120
aI123
aI-56
aI0
aI0
aI0
aI0
aI73
aI69
aI78
aI68
aI-82
aI66
aI96
aI-126
aI187
tp48
Rp49
ag1
(I12
I63
(lp50
I-119
aI80
aI78
aI71
aI13
aI10
aI26
aI10
aI0
aI0
aI0
aI13
aI73
aI72
aI68
aI82
aI0
aI0
aI0
aI63
aI0
aI0
aI0
aI12
aI1
aI3
aI0
aI0
aI0
aI-17
aI127
aI-9
aI-97
aI0
aI0
aI0
aI6
aI80
aI76
aI84
aI69
aI0
aI0
aI0
aI-1
aI-1
aI-1
aI-91
aI-39
aI-97
aI-35
aI0
aI0
aI0
aI9
aI112
aI72
aI89
aI115
aI0
aI0
aI14
aI-60
aI0
aI0
aI14
aI-60
aI1
aI-107
aI43
aI14
aI27
aI0
aI0
aI0
aI91
aI73
aI68
aI65
aI84
aI8
aI-103
aI99
aI-8
aI-59
aI-74
aI46
aI81
aI100
aI83
aI-39
aI7
aI-122
aI10
aI40
aI-117
aI97
aI79
aI45
aI115
aI-72
aI65
aI87
aI-92
aI21
aI-61
aI-19
aI-29
aI23
aI76
aI-117
aI57
aI-106
aI78
aI98
aI120
aI33
aI-75
aI-77
aI37
aI-24
aI-28
aI-19
aI99
aI12
aI95
aI120
aI99
aI14
aI105
aI-90
aI-68
aI125
aI-60
aI16
aI10
aI1
aI33
aI12
aI51
aI33
aI-96
aI-115
aI-31
aI33
aI4
aI60
aI96
aI-8
aI-57
aI8
aI-122
aI12
aI12
aI-1
aI-1
aI49
aI48
aI2
aI49
aI-112
aI-15
aI31
aI76
aI49
aI0
aI0
aI-126
aI108
aI51
aI2
aI-97
aI114
aI-100
aI86
aI0
aI0
aI0
aI0
aI73
aI69
aI78
aI68
aI-82
aI66
aI96
aI-126
aI187
tp51
Rp52
ag1
(I12
I63
(lp53
I-119
aI80
aI78
aI71
aI13
aI10
aI26
aI10
aI0
aI0
aI0
aI13
aI73
aI72
aI68
aI82
aI0
aI0
aI0
aI63
aI0
aI0
aI0
aI12
aI1
aI3
aI0
aI0
aI0
aI-17
aI127
aI-9
aI-97
aI0
aI0
aI0
aI6
aI80
aI76
aI84
aI69
aI0
aI0
aI0
aI-1
aI-1
aI-1
aI-91
aI-39
aI-97
aI-35
aI0
aI0
aI0
aI9
aI112
aI72
aI89
aI115
aI0
aI0
aI14
aI-60
aI0
aI0
aI14
aI-60
aI1
aI-107
aI43
aI14
aI27
aI0
aI0
aI0
aI91
aI73
aI68
aI65
aI84
aI8
aI-103
aI99
aI-8
aI-59
aI-74
aI46
aI81
aI100
aI83
aI-39
aI7
aI-122
aI10
aI40
aI-117
aI97
aI79
aI45
aI115
aI-72
aI65
aI87
aI-92
aI21
aI-61
aI-19
aI-29
aI23
aI76
aI-117
aI57
aI-106
aI78
aI98
aI120
aI33
aI-75
aI-77
aI37
aI-24
aI-28
aI-19
aI99
aI12
aI95
aI120
aI99
aI14
aI105
aI-90
aI-68
aI125
aI-60
aI16
aI10
aI1
aI65
aI12
aI51
aI33
aI-96
aI-115
aI-31
aI33
aI4
aI60
aI96
aI-8
aI-57
aI8
aI-122
aI12
aI12
aI-1
aI-1
aI49
aI48
aI2
aI49
aI-112
aI-15
aI31
aI76
aI49
aI0
aI0
aI-126
aI16
aI51
aI0
aI-15
aI35
aI57
aI-124
aI0
aI0
aI0
aI0
aI73
aI69
aI78
aI68
aI-82
aI66
aI96
aI-126
aI187
tp54
Rp55
ag1
(I12
I63
(lp56
I-119
aI80
aI78
aI71
aI13
aI10
aI26
aI10
aI0
aI0
aI0
aI13
aI73
aI72
aI68
aI82
aI0
aI0
aI0
aI63
aI0
aI0
aI0
aI12
aI1
aI3
aI0
aI0
aI0
aI-17
aI127
aI-9
aI-97
aI0
aI0
aI0
aI6
aI80
aI76
aI84
aI69
aI0
aI0
aI0
aI-1
aI-1
aI-1
aI-91
aI-39
aI-97
aI-35
aI0
aI0
aI0
aI9
aI112
aI72
aI89
aI115
aI0
aI0
aI14
aI-60
aI0
aI0
aI14
aI-60
aI1
aI-107
aI43
aI14
aI27
aI0
aI0
aI0
aI91
aI73
aI68
aI65
aI84
aI8
aI-103
aI99
aI-8
aI-59
aI-74
aI46
aI81
aI100
aI83
aI-39
aI7
aI-122
aI10
aI40
aI-117
aI97
aI79
aI45
aI115
aI-72
aI65
aI87
aI-92
aI21
aI-61
aI-19
aI-29
aI23
aI76
aI-117
aI57
aI-106
aI78
aI98
aI120
aI33
aI-75
aI-77
aI37
aI-24
aI-28
aI-19
aI99
aI12
aI95
aI120
aI99
aI14
aI105
aI-90
aI-68
aI125
aI-60
aI16
aI10
aI1
aI94
aI12
aI51
aI33
aI-96
aI-121
aI-31
aI33
aI4
aI60
aI96
aI-8
aI-57
aI8
aI-122
aI12
aI12
aI-1
aI-1
aI49
aI48
aI2
aI49
aI-112
aI-15
aI31
aI76
aI49
aI0
aI0
aI-127
aI126
aI50
aI-2
aI-81
aI72
aI-56
aI32
aI0
aI0
aI0
aI0
aI73
aI69
aI78
aI68
aI-82
aI66
aI96
aI-126
aI187
tp57
Rp58
ag1
(I12
I63
(lp59
I-119
aI80
aI78
aI71
aI13
aI10
aI26
aI10
aI0
aI0
aI0
aI13
aI73
aI72
aI68
aI82
aI0
aI0
aI0
aI63
aI0
aI0
aI0
aI12
aI1
aI3
aI0
aI0
aI0
aI-17
aI127
aI-9
aI-97
aI0
aI0
aI0
aI6
aI80
aI76
aI84
aI69
aI0
aI0
aI0
aI-1
aI-1
aI-1
aI-91
aI-39
aI-97
aI-35
aI0
aI0
aI0
aI9
aI112
aI72
aI89
aI115
aI0
aI0
aI14
aI-60
aI0
aI0
aI14
aI-60
aI1
aI-107
aI43
aI14
aI27
aI0
aI0
aI0
aI91
aI73
aI68
aI65
aI84
aI8
aI-103
aI99
aI-8
aI-59
aI-74
aI46
aI81
aI100
aI83
aI-39
aI7
aI-122
aI10
aI40
aI-117
aI97
aI79
aI45
aI115
aI-72
aI65
aI87
aI-92
aI21
aI-61
aI-19
aI-29
aI23
aI76
aI-117
aI57
aI-106
aI78
aI98
aI120
aI33
aI-75
aI-77
aI37
aI-24
aI-28
aI-19
aI99
aI12
aI95
aI120
aI99
aI14
aI105
aI-90
aI-68
aI125
aI-60
aI16
aI10
aI1
aI62
aI12
aI51
aI33
aI-96
aI-117
aI-31
aI33
aI4
aI60
aI96
aI-8
aI-57
aI8
aI-122
aI12
aI12
aI-1
aI-1
aI49
aI48
aI2
aI49
aI-112
aI-15
aI31
aI76
aI49
aI0
aI0
aI-127
aI-112
aI50
aI-2
aI40
aI50
aI-57
aI51
aI0
aI0
aI0
aI0
aI73
aI69
aI78
aI68
aI-82
aI66
aI96
aI-126
aI187
tp60
Rp61
ag1
(I12
I63
(lp62
I-119
aI80
aI78
aI71
aI13
aI10
aI26
aI10
aI0
aI0
aI0
aI13
aI73
aI72
aI68
aI82
aI0
aI0
aI0
aI63
aI0
aI0
aI0
aI12
aI1
aI3
aI0
aI0
aI0
aI-17
aI127
aI-9
aI-97
aI0
aI0
aI0
aI6
aI80
aI76
aI84
aI69
aI0
aI0
aI0
aI-1
aI-1
aI-1
aI-91
aI-39
aI-97
aI-35
aI0
aI0
aI0
aI9
aI112
aI72
aI89
aI115
aI0
aI0
aI14
aI-60
aI0
aI0
aI14
aI-60
aI1
aI-107
aI43
aI14
aI27
aI0
aI0
aI0
aI91
aI73
aI68
aI65
aI84
aI8
aI-103
aI99
aI-8
aI-59
aI-74
aI46
aI81
aI100
aI83
aI-39
aI7
aI-122
aI10
aI40
aI-117
aI97
aI79
aI45
aI115
aI-72
aI65
aI87
aI-92
aI21
aI-61
aI-19
aI-29
aI23
aI76
aI-117
aI57
aI-106
aI78
aI98
aI120
aI33
aI-75
aI-77
aI37
aI-24
aI-28
aI-19
aI99
aI12
aI95
aI120
aI99
aI14
aI105
aI-90
aI-68
aI125
aI-60
aI16
aI10
aI1
aI110
aI12
aI51
aI33
aI-96
aI-121
aI-31
aI33
aI4
aI60
aI96
aI-8
aI-57
aI8
aI-122
aI12
aI12
aI-1
aI-1
aI49
aI48
aI2
aI49
aI-112
aI-15
aI31
aI76
aI49
aI0
aI0
aI-128
aI-58
aI50
aI-6
aI-75
aI14
aI-18
aI17
aI0
aI0
aI0
aI0
aI73
aI69
aI78
aI68
aI-82
aI66
aI96
aI-126
aI187
tp63
Rp64
a.